
Optional file libmchp_peripheral.a not found

Optional file libmchp_peripheral_32MX440F256H.a not found
Archive member included because of file (symbol)

c:/program files (x86)/microchip/xc32/v2.05/bin/bin/../../lib/gcc/pic32mx/4.8.3/../../../../pic32mx/lib\libpic32.a(memcpy.o)
                              build/default/debug/_ext/308758920/usb_device.o (memcpy)
c:/program files (x86)/microchip/xc32/v2.05/bin/bin/../../lib/gcc/pic32mx/4.8.3/../../../../pic32mx/lib\libpic32.a(strcmp.o)
                              build/default/debug/_ext/1360937237/thermal_commands.o (strcmp)
c:/program files (x86)/microchip/xc32/v2.05/bin/bin/../../lib/gcc/pic32mx/4.8.3/../../../../pic32mx/lib\libpic32.a(default-on-reset.o)
                              c:/program files (x86)/microchip/xc32/v2.05/bin/bin/../../lib/gcc/pic32mx/4.8.3/../../../../pic32mx/lib/./proc/32MX440F256H/crt0_mips32r2.o (_on_reset)
c:/program files (x86)/microchip/xc32/v2.05/bin/bin/../../lib/gcc/pic32mx/4.8.3/../../../../pic32mx/lib\libpic32.a(default-on-bootstrap.o)
                              c:/program files (x86)/microchip/xc32/v2.05/bin/bin/../../lib/gcc/pic32mx/4.8.3/../../../../pic32mx/lib/./proc/32MX440F256H/crt0_mips32r2.o (_on_bootstrap)
c:/program files (x86)/microchip/xc32/v2.05/bin/bin/../../lib/gcc/pic32mx/4.8.3/../../../../pic32mx/lib\libpic32.a(default-nmi-handler.o)
                              c:/program files (x86)/microchip/xc32/v2.05/bin/bin/../../lib/gcc/pic32mx/4.8.3/../../../../pic32mx/lib/./proc/32MX440F256H/crt0_mips32r2.o (_nmi_handler)
c:/program files (x86)/microchip/xc32/v2.05/bin/bin/../../lib/gcc/pic32mx/4.8.3/../../../../pic32mx/lib\libpic32.a(general-exception.o)
                              c:/program files (x86)/microchip/xc32/v2.05/bin/bin/../../lib/gcc/pic32mx/4.8.3/../../../../pic32mx/lib/./proc/32MX440F256H/crt0_mips32r2.o (_general_exception_context)
c:/program files (x86)/microchip/xc32/v2.05/bin/bin/../../lib/gcc/pic32mx/4.8.3/../../../../pic32mx/lib\libpic32.a(vector2.o)
                              c:/program files (x86)/microchip/xc32/v2.05/bin/bin/../../lib/gcc/pic32mx/4.8.3/../../../../pic32mx/lib/./proc/32MX440F256H\default_isr_vectors.o (__vector_dispatch_2)
c:/program files (x86)/microchip/xc32/v2.05/bin/bin/../../lib/gcc/pic32mx/4.8.3/../../../../pic32mx/lib\libpic32.a(vector3.o)
                              c:/program files (x86)/microchip/xc32/v2.05/bin/bin/../../lib/gcc/pic32mx/4.8.3/../../../../pic32mx/lib/./proc/32MX440F256H\default_isr_vectors.o (__vector_dispatch_3)
c:/program files (x86)/microchip/xc32/v2.05/bin/bin/../../lib/gcc/pic32mx/4.8.3/../../../../pic32mx/lib\libpic32.a(vector5.o)
                              c:/program files (x86)/microchip/xc32/v2.05/bin/bin/../../lib/gcc/pic32mx/4.8.3/../../../../pic32mx/lib/./proc/32MX440F256H\default_isr_vectors.o (__vector_dispatch_5)
c:/program files (x86)/microchip/xc32/v2.05/bin/bin/../../lib/gcc/pic32mx/4.8.3/../../../../pic32mx/lib\libpic32.a(vector6.o)
                              c:/program files (x86)/microchip/xc32/v2.05/bin/bin/../../lib/gcc/pic32mx/4.8.3/../../../../pic32mx/lib/./proc/32MX440F256H\default_isr_vectors.o (__vector_dispatch_6)
c:/program files (x86)/microchip/xc32/v2.05/bin/bin/../../lib/gcc/pic32mx/4.8.3/../../../../pic32mx/lib\libpic32.a(vector7.o)
                              c:/program files (x86)/microchip/xc32/v2.05/bin/bin/../../lib/gcc/pic32mx/4.8.3/../../../../pic32mx/lib/./proc/32MX440F256H\default_isr_vectors.o (__vector_dispatch_7)
c:/program files (x86)/microchip/xc32/v2.05/bin/bin/../../lib/gcc/pic32mx/4.8.3/../../../../pic32mx/lib\libpic32.a(vector8.o)
                              c:/program files (x86)/microchip/xc32/v2.05/bin/bin/../../lib/gcc/pic32mx/4.8.3/../../../../pic32mx/lib/./proc/32MX440F256H\default_isr_vectors.o (__vector_dispatch_8)
c:/program files (x86)/microchip/xc32/v2.05/bin/bin/../../lib/gcc/pic32mx/4.8.3/../../../../pic32mx/lib\libpic32.a(vector9.o)
                              c:/program files (x86)/microchip/xc32/v2.05/bin/bin/../../lib/gcc/pic32mx/4.8.3/../../../../pic32mx/lib/./proc/32MX440F256H\default_isr_vectors.o (__vector_dispatch_9)
c:/program files (x86)/microchip/xc32/v2.05/bin/bin/../../lib/gcc/pic32mx/4.8.3/../../../../pic32mx/lib\libpic32.a(vector10.o)
                              c:/program files (x86)/microchip/xc32/v2.05/bin/bin/../../lib/gcc/pic32mx/4.8.3/../../../../pic32mx/lib/./proc/32MX440F256H\default_isr_vectors.o (__vector_dispatch_10)
c:/program files (x86)/microchip/xc32/v2.05/bin/bin/../../lib/gcc/pic32mx/4.8.3/../../../../pic32mx/lib\libpic32.a(vector11.o)
                              c:/program files (x86)/microchip/xc32/v2.05/bin/bin/../../lib/gcc/pic32mx/4.8.3/../../../../pic32mx/lib/./proc/32MX440F256H\default_isr_vectors.o (__vector_dispatch_11)
c:/program files (x86)/microchip/xc32/v2.05/bin/bin/../../lib/gcc/pic32mx/4.8.3/../../../../pic32mx/lib\libpic32.a(vector12.o)
                              c:/program files (x86)/microchip/xc32/v2.05/bin/bin/../../lib/gcc/pic32mx/4.8.3/../../../../pic32mx/lib/./proc/32MX440F256H\default_isr_vectors.o (__vector_dispatch_12)
c:/program files (x86)/microchip/xc32/v2.05/bin/bin/../../lib/gcc/pic32mx/4.8.3/../../../../pic32mx/lib\libpic32.a(vector13.o)
                              c:/program files (x86)/microchip/xc32/v2.05/bin/bin/../../lib/gcc/pic32mx/4.8.3/../../../../pic32mx/lib/./proc/32MX440F256H\default_isr_vectors.o (__vector_dispatch_13)
c:/program files (x86)/microchip/xc32/v2.05/bin/bin/../../lib/gcc/pic32mx/4.8.3/../../../../pic32mx/lib\libpic32.a(vector14.o)
                              c:/program files (x86)/microchip/xc32/v2.05/bin/bin/../../lib/gcc/pic32mx/4.8.3/../../../../pic32mx/lib/./proc/32MX440F256H\default_isr_vectors.o (__vector_dispatch_14)
c:/program files (x86)/microchip/xc32/v2.05/bin/bin/../../lib/gcc/pic32mx/4.8.3/../../../../pic32mx/lib\libpic32.a(vector15.o)
                              c:/program files (x86)/microchip/xc32/v2.05/bin/bin/../../lib/gcc/pic32mx/4.8.3/../../../../pic32mx/lib/./proc/32MX440F256H\default_isr_vectors.o (__vector_dispatch_15)
c:/program files (x86)/microchip/xc32/v2.05/bin/bin/../../lib/gcc/pic32mx/4.8.3/../../../../pic32mx/lib\libpic32.a(vector16.o)
                              c:/program files (x86)/microchip/xc32/v2.05/bin/bin/../../lib/gcc/pic32mx/4.8.3/../../../../pic32mx/lib/./proc/32MX440F256H\default_isr_vectors.o (__vector_dispatch_16)
c:/program files (x86)/microchip/xc32/v2.05/bin/bin/../../lib/gcc/pic32mx/4.8.3/../../../../pic32mx/lib\libpic32.a(vector17.o)
                              c:/program files (x86)/microchip/xc32/v2.05/bin/bin/../../lib/gcc/pic32mx/4.8.3/../../../../pic32mx/lib/./proc/32MX440F256H\default_isr_vectors.o (__vector_dispatch_17)
c:/program files (x86)/microchip/xc32/v2.05/bin/bin/../../lib/gcc/pic32mx/4.8.3/../../../../pic32mx/lib\libpic32.a(vector18.o)
                              c:/program files (x86)/microchip/xc32/v2.05/bin/bin/../../lib/gcc/pic32mx/4.8.3/../../../../pic32mx/lib/./proc/32MX440F256H\default_isr_vectors.o (__vector_dispatch_18)
c:/program files (x86)/microchip/xc32/v2.05/bin/bin/../../lib/gcc/pic32mx/4.8.3/../../../../pic32mx/lib\libpic32.a(vector19.o)
                              c:/program files (x86)/microchip/xc32/v2.05/bin/bin/../../lib/gcc/pic32mx/4.8.3/../../../../pic32mx/lib/./proc/32MX440F256H\default_isr_vectors.o (__vector_dispatch_19)
c:/program files (x86)/microchip/xc32/v2.05/bin/bin/../../lib/gcc/pic32mx/4.8.3/../../../../pic32mx/lib\libpic32.a(vector20.o)
                              c:/program files (x86)/microchip/xc32/v2.05/bin/bin/../../lib/gcc/pic32mx/4.8.3/../../../../pic32mx/lib/./proc/32MX440F256H\default_isr_vectors.o (__vector_dispatch_20)
c:/program files (x86)/microchip/xc32/v2.05/bin/bin/../../lib/gcc/pic32mx/4.8.3/../../../../pic32mx/lib\libpic32.a(vector21.o)
                              c:/program files (x86)/microchip/xc32/v2.05/bin/bin/../../lib/gcc/pic32mx/4.8.3/../../../../pic32mx/lib/./proc/32MX440F256H\default_isr_vectors.o (__vector_dispatch_21)
c:/program files (x86)/microchip/xc32/v2.05/bin/bin/../../lib/gcc/pic32mx/4.8.3/../../../../pic32mx/lib\libpic32.a(vector22.o)
                              c:/program files (x86)/microchip/xc32/v2.05/bin/bin/../../lib/gcc/pic32mx/4.8.3/../../../../pic32mx/lib/./proc/32MX440F256H\default_isr_vectors.o (__vector_dispatch_22)
c:/program files (x86)/microchip/xc32/v2.05/bin/bin/../../lib/gcc/pic32mx/4.8.3/../../../../pic32mx/lib\libpic32.a(vector23.o)
                              c:/program files (x86)/microchip/xc32/v2.05/bin/bin/../../lib/gcc/pic32mx/4.8.3/../../../../pic32mx/lib/./proc/32MX440F256H\default_isr_vectors.o (__vector_dispatch_23)
c:/program files (x86)/microchip/xc32/v2.05/bin/bin/../../lib/gcc/pic32mx/4.8.3/../../../../pic32mx/lib\libpic32.a(vector24.o)
                              c:/program files (x86)/microchip/xc32/v2.05/bin/bin/../../lib/gcc/pic32mx/4.8.3/../../../../pic32mx/lib/./proc/32MX440F256H\default_isr_vectors.o (__vector_dispatch_24)
c:/program files (x86)/microchip/xc32/v2.05/bin/bin/../../lib/gcc/pic32mx/4.8.3/../../../../pic32mx/lib\libpic32.a(vector25.o)
                              c:/program files (x86)/microchip/xc32/v2.05/bin/bin/../../lib/gcc/pic32mx/4.8.3/../../../../pic32mx/lib/./proc/32MX440F256H\default_isr_vectors.o (__vector_dispatch_25)
c:/program files (x86)/microchip/xc32/v2.05/bin/bin/../../lib/gcc/pic32mx/4.8.3/../../../../pic32mx/lib\libpic32.a(vector26.o)
                              c:/program files (x86)/microchip/xc32/v2.05/bin/bin/../../lib/gcc/pic32mx/4.8.3/../../../../pic32mx/lib/./proc/32MX440F256H\default_isr_vectors.o (__vector_dispatch_26)
c:/program files (x86)/microchip/xc32/v2.05/bin/bin/../../lib/gcc/pic32mx/4.8.3/../../../../pic32mx/lib\libpic32.a(vector27.o)
                              c:/program files (x86)/microchip/xc32/v2.05/bin/bin/../../lib/gcc/pic32mx/4.8.3/../../../../pic32mx/lib/./proc/32MX440F256H\default_isr_vectors.o (__vector_dispatch_27)
c:/program files (x86)/microchip/xc32/v2.05/bin/bin/../../lib/gcc/pic32mx/4.8.3/../../../../pic32mx/lib\libpic32.a(vector28.o)
                              c:/program files (x86)/microchip/xc32/v2.05/bin/bin/../../lib/gcc/pic32mx/4.8.3/../../../../pic32mx/lib/./proc/32MX440F256H\default_isr_vectors.o (__vector_dispatch_28)
c:/program files (x86)/microchip/xc32/v2.05/bin/bin/../../lib/gcc/pic32mx/4.8.3/../../../../pic32mx/lib\libpic32.a(vector29.o)
                              c:/program files (x86)/microchip/xc32/v2.05/bin/bin/../../lib/gcc/pic32mx/4.8.3/../../../../pic32mx/lib/./proc/32MX440F256H\default_isr_vectors.o (__vector_dispatch_29)
c:/program files (x86)/microchip/xc32/v2.05/bin/bin/../../lib/gcc/pic32mx/4.8.3/../../../../pic32mx/lib\libpic32.a(vector30.o)
                              c:/program files (x86)/microchip/xc32/v2.05/bin/bin/../../lib/gcc/pic32mx/4.8.3/../../../../pic32mx/lib/./proc/32MX440F256H\default_isr_vectors.o (__vector_dispatch_30)
c:/program files (x86)/microchip/xc32/v2.05/bin/bin/../../lib/gcc/pic32mx/4.8.3/../../../../pic32mx/lib\libpic32.a(vector31.o)
                              c:/program files (x86)/microchip/xc32/v2.05/bin/bin/../../lib/gcc/pic32mx/4.8.3/../../../../pic32mx/lib/./proc/32MX440F256H\default_isr_vectors.o (__vector_dispatch_31)
c:/program files (x86)/microchip/xc32/v2.05/bin/bin/../../lib/gcc/pic32mx/4.8.3/../../../../pic32mx/lib\libpic32.a(vector32.o)
                              c:/program files (x86)/microchip/xc32/v2.05/bin/bin/../../lib/gcc/pic32mx/4.8.3/../../../../pic32mx/lib/./proc/32MX440F256H\default_isr_vectors.o (__vector_dispatch_32)
c:/program files (x86)/microchip/xc32/v2.05/bin/bin/../../lib/gcc/pic32mx/4.8.3/../../../../pic32mx/lib\libpic32.a(vector33.o)
                              c:/program files (x86)/microchip/xc32/v2.05/bin/bin/../../lib/gcc/pic32mx/4.8.3/../../../../pic32mx/lib/./proc/32MX440F256H\default_isr_vectors.o (__vector_dispatch_33)
c:/program files (x86)/microchip/xc32/v2.05/bin/bin/../../lib/gcc/pic32mx/4.8.3/../../../../pic32mx/lib\libpic32.a(vector34.o)
                              c:/program files (x86)/microchip/xc32/v2.05/bin/bin/../../lib/gcc/pic32mx/4.8.3/../../../../pic32mx/lib/./proc/32MX440F256H\default_isr_vectors.o (__vector_dispatch_34)
c:/program files (x86)/microchip/xc32/v2.05/bin/bin/../../lib/gcc/pic32mx/4.8.3/../../../../pic32mx/lib\libpic32.a(vector35.o)
                              c:/program files (x86)/microchip/xc32/v2.05/bin/bin/../../lib/gcc/pic32mx/4.8.3/../../../../pic32mx/lib/./proc/32MX440F256H\default_isr_vectors.o (__vector_dispatch_35)
c:/program files (x86)/microchip/xc32/v2.05/bin/bin/../../lib/gcc/pic32mx/4.8.3/../../../../pic32mx/lib\libpic32.a(vector36.o)
                              c:/program files (x86)/microchip/xc32/v2.05/bin/bin/../../lib/gcc/pic32mx/4.8.3/../../../../pic32mx/lib/./proc/32MX440F256H\default_isr_vectors.o (__vector_dispatch_36)
c:/program files (x86)/microchip/xc32/v2.05/bin/bin/../../lib/gcc/pic32mx/4.8.3/../../../../pic32mx/lib\libpic32.a(vector37.o)
                              c:/program files (x86)/microchip/xc32/v2.05/bin/bin/../../lib/gcc/pic32mx/4.8.3/../../../../pic32mx/lib/./proc/32MX440F256H\default_isr_vectors.o (__vector_dispatch_37)
c:/program files (x86)/microchip/xc32/v2.05/bin/bin/../../lib/gcc/pic32mx/4.8.3/../../../../pic32mx/lib\libpic32.a(vector38.o)
                              c:/program files (x86)/microchip/xc32/v2.05/bin/bin/../../lib/gcc/pic32mx/4.8.3/../../../../pic32mx/lib/./proc/32MX440F256H\default_isr_vectors.o (__vector_dispatch_38)
c:/program files (x86)/microchip/xc32/v2.05/bin/bin/../../lib/gcc/pic32mx/4.8.3/../../../../pic32mx/lib\libpic32.a(vector39.o)
                              c:/program files (x86)/microchip/xc32/v2.05/bin/bin/../../lib/gcc/pic32mx/4.8.3/../../../../pic32mx/lib/./proc/32MX440F256H\default_isr_vectors.o (__vector_dispatch_39)
c:/program files (x86)/microchip/xc32/v2.05/bin/bin/../../lib/gcc/pic32mx/4.8.3/../../../../pic32mx/lib\libpic32.a(vector40.o)
                              c:/program files (x86)/microchip/xc32/v2.05/bin/bin/../../lib/gcc/pic32mx/4.8.3/../../../../pic32mx/lib/./proc/32MX440F256H\default_isr_vectors.o (__vector_dispatch_40)
c:/program files (x86)/microchip/xc32/v2.05/bin/bin/../../lib/gcc/pic32mx/4.8.3/../../../../pic32mx/lib\libpic32.a(vector41.o)
                              c:/program files (x86)/microchip/xc32/v2.05/bin/bin/../../lib/gcc/pic32mx/4.8.3/../../../../pic32mx/lib/./proc/32MX440F256H\default_isr_vectors.o (__vector_dispatch_41)
c:/program files (x86)/microchip/xc32/v2.05/bin/bin/../../lib/gcc/pic32mx/4.8.3/../../../../pic32mx/lib\libpic32.a(vector42.o)
                              c:/program files (x86)/microchip/xc32/v2.05/bin/bin/../../lib/gcc/pic32mx/4.8.3/../../../../pic32mx/lib/./proc/32MX440F256H\default_isr_vectors.o (__vector_dispatch_42)
c:/program files (x86)/microchip/xc32/v2.05/bin/bin/../../lib/gcc/pic32mx/4.8.3/../../../../pic32mx/lib\libpic32.a(vector43.o)
                              c:/program files (x86)/microchip/xc32/v2.05/bin/bin/../../lib/gcc/pic32mx/4.8.3/../../../../pic32mx/lib/./proc/32MX440F256H\default_isr_vectors.o (__vector_dispatch_43)
c:/program files (x86)/microchip/xc32/v2.05/bin/bin/../../lib/gcc/pic32mx/4.8.3/../../../../pic32mx/lib\libpic32.a(vector44.o)
                              c:/program files (x86)/microchip/xc32/v2.05/bin/bin/../../lib/gcc/pic32mx/4.8.3/../../../../pic32mx/lib/./proc/32MX440F256H\default_isr_vectors.o (__vector_dispatch_44)
c:/program files (x86)/microchip/xc32/v2.05/bin/bin/../../lib/gcc/pic32mx/4.8.3/../../../../pic32mx/lib\libpic32.a(defaultinterrupt.o)
                              c:/program files (x86)/microchip/xc32/v2.05/bin/bin/../../lib/gcc/pic32mx/4.8.3/../../../../pic32mx/lib\libpic32.a(vector2.o) (_DefaultInterrupt)
c:/program files (x86)/microchip/xc32/v2.05/bin/bin/../../lib/gcc/pic32mx/4.8.3/../../../../pic32mx/lib\libc.a(atoi.o)
                              build/default/debug/_ext/1360937237/thermal_commands.o (atoi)
c:/program files (x86)/microchip/xc32/v2.05/bin/bin/../../lib/gcc/pic32mx/4.8.3/../../../../pic32mx/lib\libc.a(ctype.o)
                              c:/program files (x86)/microchip/xc32/v2.05/bin/bin/../../lib/gcc/pic32mx/4.8.3/../../../../pic32mx/lib\libc.a(atoi.o) (_ctype)
c:/program files (x86)/microchip/xc32/v2.05/bin/bin/../../lib/gcc/pic32mx/4.8.3/../../../../pic32mx/lib\libc.a(ctypef.o)
                              build/default/debug/_ext/1548692632/Athena.o (toupper)
c:/program files (x86)/microchip/xc32/v2.05/bin/bin/../../lib/gcc/pic32mx/4.8.3/../../../../pic32mx/lib\libc.a(atof.o)
                              build/default/debug/_ext/1548692632/Athena.o (atof)
c:/program files (x86)/microchip/xc32/v2.05/bin/bin/../../lib/gcc/pic32mx/4.8.3/../../../../pic32mx/lib\libc.a(sprintf_cdfFnopuxX.eo)
                              build/default/debug/_ext/1360937237/thermal_commands.o (_sprintf_cdfFnopuxX)
c:/program files (x86)/microchip/xc32/v2.05/bin/bin/../../lib/gcc/pic32mx/4.8.3/../../../../pic32mx/lib\libc.a(sprintf_cdnopuxX.eo)
                              build/default/debug/_ext/1360937237/thermal_commands.o (_sprintf_cdnopuxX)
c:/program files (x86)/microchip/xc32/v2.05/bin/bin/../../lib/gcc/pic32mx/4.8.3/../../../../pic32mx/lib\libc.a(sprintf_fF.eo)
                              build/default/debug/_ext/1548692632/Athena.o (_sprintf_fF)
c:/program files (x86)/microchip/xc32/v2.05/bin/bin/../../lib/gcc/pic32mx/4.8.3/../../../../pic32mx/lib\libc.a(strtof.o)
                              c:/program files (x86)/microchip/xc32/v2.05/bin/bin/../../lib/gcc/pic32mx/4.8.3/../../../../pic32mx/lib\libc.a(atof.o) (strtof)
c:/program files (x86)/microchip/xc32/v2.05/bin/bin/../../lib/gcc/pic32mx/4.8.3/../../../../pic32mx/lib\libc.a(doprnt_cdfFnopuxX.eo)
                              c:/program files (x86)/microchip/xc32/v2.05/bin/bin/../../lib/gcc/pic32mx/4.8.3/../../../../pic32mx/lib\libc.a(sprintf_cdfFnopuxX.eo) (_vfprintf_cdfFnopuxX)
c:/program files (x86)/microchip/xc32/v2.05/bin/bin/../../lib/gcc/pic32mx/4.8.3/../../../../pic32mx/lib\libc.a(doprnt_cdnopuxX.eo)
                              c:/program files (x86)/microchip/xc32/v2.05/bin/bin/../../lib/gcc/pic32mx/4.8.3/../../../../pic32mx/lib\libc.a(sprintf_cdnopuxX.eo) (_vfprintf_cdnopuxX)
c:/program files (x86)/microchip/xc32/v2.05/bin/bin/../../lib/gcc/pic32mx/4.8.3/../../../../pic32mx/lib\libc.a(doprnt_fF.eo)
                              c:/program files (x86)/microchip/xc32/v2.05/bin/bin/../../lib/gcc/pic32mx/4.8.3/../../../../pic32mx/lib\libc.a(sprintf_fF.eo) (_vfprintf_fF)
c:/program files (x86)/microchip/xc32/v2.05/bin/bin/../../lib/gcc/pic32mx/4.8.3/../../../../pic32mx/lib\libc.a(_fputc_simple.o)
                              c:/program files (x86)/microchip/xc32/v2.05/bin/bin/../../lib/gcc/pic32mx/4.8.3/../../../../pic32mx/lib\libc.a(doprnt_cdfFnopuxX.eo) (fputc)
c:/program files (x86)/microchip/xc32/v2.05/bin/bin/../../lib/gcc/pic32mx/4.8.3/../../../../pic32mx/lib\libc.a(ldpowers.o)
                              c:/program files (x86)/microchip/xc32/v2.05/bin/bin/../../lib/gcc/pic32mx/4.8.3/../../../../pic32mx/lib\libc.a(doprnt_cdfFnopuxX.eo) (_npowers_)
c:/program files (x86)/microchip/xc32/v2.05/bin/bin/../../lib/gcc/pic32mx/4.8.3/../../../../pic32mx/lib\libc.a(_iob.o)
                              c:/program files (x86)/microchip/xc32/v2.05/bin/bin/../../lib/gcc/pic32mx/4.8.3/../../../../pic32mx/lib\libc.a(_fputc_simple.o) (_outdone)
c:/program files (x86)/microchip/xc32/v2.05/bin/bin/../../lib/gcc/pic32mx/4.8.3/../../../../pic32mx/lib\libc.a(_flsbuf_simple.o)
                              c:/program files (x86)/microchip/xc32/v2.05/bin/bin/../../lib/gcc/pic32mx/4.8.3/../../../../pic32mx/lib\libc.a(_fputc_simple.o) (_flsbuf)
c:/program files (x86)/microchip/xc32/v2.05/bin/bin/../../lib/gcc/pic32mx/4.8.3/../../../../pic32mx/lib\libm.a(dpfrexp.o)
                              c:/program files (x86)/microchip/xc32/v2.05/bin/bin/../../lib/gcc/pic32mx/4.8.3/../../../../pic32mx/lib\libc.a(doprnt_cdfFnopuxX.eo) (frexpl)
c:/program files (x86)/microchip/xc32/v2.05/bin/bin/../../lib/gcc/pic32mx/4.8.3/../../../../pic32mx/lib\libm.a(dp32div.o)
                              c:/program files (x86)/microchip/xc32/v2.05/bin/bin/../../lib/gcc/pic32mx/4.8.3/../../../../pic32mx/lib\libc.a(doprnt_cdfFnopuxX.eo) (dpdiv)
c:/program files (x86)/microchip/xc32/v2.05/bin/bin/../../lib/gcc/pic32mx/4.8.3/../../../../pic32mx/lib\libm.a(dp32mul.o)
                              c:/program files (x86)/microchip/xc32/v2.05/bin/bin/../../lib/gcc/pic32mx/4.8.3/../../../../pic32mx/lib\libc.a(doprnt_cdfFnopuxX.eo) (dpmul)
c:/program files (x86)/microchip/xc32/v2.05/bin/bin/../../lib/gcc/pic32mx/4.8.3/../../../../pic32mx/lib\libm.a(dp32subadd.o)
                              c:/program files (x86)/microchip/xc32/v2.05/bin/bin/../../lib/gcc/pic32mx/4.8.3/../../../../pic32mx/lib\libc.a(doprnt_cdfFnopuxX.eo) (dpsub)
c:/program files (x86)/microchip/xc32/v2.05/bin/bin/../../lib/gcc/pic32mx/4.8.3/../../../../pic32mx/lib\libm.a(dpcmp.o)
                              c:/program files (x86)/microchip/xc32/v2.05/bin/bin/../../lib/gcc/pic32mx/4.8.3/../../../../pic32mx/lib\libc.a(doprnt_cdfFnopuxX.eo) (dpcmp)
c:/program files (x86)/microchip/xc32/v2.05/bin/bin/../../lib/gcc/pic32mx/4.8.3/../../../../pic32mx/lib\libm.a(fp32subadd.o)
                              build/default/debug/_ext/1360937237/app_main.o (fpadd)
c:/program files (x86)/microchip/xc32/v2.05/bin/bin/../../lib/gcc/pic32mx/4.8.3/../../../../pic32mx/lib\libm.a(fpcmp.o)
                              build/default/debug/_ext/1360937237/app_main.o (fpcmp)
c:/program files (x86)/microchip/xc32/v2.05/bin/bin/../../lib/gcc/pic32mx/4.8.3/../../../../pic32mx/lib\libm.a(fptodp.o)
                              c:/program files (x86)/microchip/xc32/v2.05/bin/bin/../../lib/gcc/pic32mx/4.8.3/../../../../pic32mx/lib\libc.a(doprnt_cdfFnopuxX.eo) (fptodp)
c:/program files (x86)/microchip/xc32/v2.05/bin/bin/../../lib/gcc/pic32mx/4.8.3/../../../../pic32mx/lib\libm.a(__strtof.o)
                              c:/program files (x86)/microchip/xc32/v2.05/bin/bin/../../lib/gcc/pic32mx/4.8.3/../../../../pic32mx/lib\libc.a(strtof.o) (__strtof)
c:/program files (x86)/microchip/xc32/v2.05/bin/bin/../../lib/gcc/pic32mx/4.8.3/../../../../pic32mx/lib\libm.a(fp32div.o)
                              c:/program files (x86)/microchip/xc32/v2.05/bin/bin/../../lib/gcc/pic32mx/4.8.3/../../../../pic32mx/lib\libm.a(__strtof.o) (__divsf3)
c:/program files (x86)/microchip/xc32/v2.05/bin/bin/../../lib/gcc/pic32mx/4.8.3/../../../../pic32mx/lib\libm.a(fp32mul.o)
                              c:/program files (x86)/microchip/xc32/v2.05/bin/bin/../../lib/gcc/pic32mx/4.8.3/../../../../pic32mx/lib\libm.a(__strtof.o) (__mulsf3)
c:/program files (x86)/microchip/xc32/v2.05/bin/bin/../../lib/gcc/pic32mx/4.8.3/../../../../pic32mx/lib\libm.a(negsf2.o)
                              c:/program files (x86)/microchip/xc32/v2.05/bin/bin/../../lib/gcc/pic32mx/4.8.3/../../../../pic32mx/lib\libm.a(__strtof.o) (__negsf2)
c:/program files (x86)/microchip/xc32/v2.05/bin/bin/../../lib/gcc/pic32mx/4.8.3/../../../../pic32mx/lib\libm.a(sitofp.o)
                              c:/program files (x86)/microchip/xc32/v2.05/bin/bin/../../lib/gcc/pic32mx/4.8.3/../../../../pic32mx/lib\libm.a(__strtof.o) (__floatsisf)
c:/program files (x86)/microchip/xc32/v2.05/bin/bin/../../lib/gcc/pic32mx/4.8.3/../../../../pic32mx/lib\libe.a(_fixunsdfdi.o)
                              c:/program files (x86)/microchip/xc32/v2.05/bin/bin/../../lib/gcc/pic32mx/4.8.3/../../../../pic32mx/lib\libc.a(doprnt_cdfFnopuxX.eo) (__fixunsdfdi)
c:/program files (x86)/microchip/xc32/v2.05/bin/bin/../../lib/gcc/pic32mx/4.8.3/../../../../pic32mx/lib\libe.a(_orderdf2.o)
                              c:/program files (x86)/microchip/xc32/v2.05/bin/bin/../../lib/gcc/pic32mx/4.8.3/../../../../pic32mx/lib\libe.a(_fixunsdfdi.o) (__orderdf2)
c:/program files (x86)/microchip/xc32/v2.05/bin/bin/../../lib/gcc/pic32mx/4.8.3/../../../../pic32mx/lib\libe.a(_ldexpf.o)
                              c:/program files (x86)/microchip/xc32/v2.05/bin/bin/../../lib/gcc/pic32mx/4.8.3/../../../../pic32mx/lib\libm.a(__strtof.o) (__ldexpf)
c:/program files (x86)/microchip/xc32/v2.05/bin/bin/../../lib/gcc/pic32mx/4.8.3/../../../../pic32mx/lib\libe.a(_fixdfdi.o)
                              c:/program files (x86)/microchip/xc32/v2.05/bin/bin/../../lib/gcc/pic32mx/4.8.3/../../../../pic32mx/lib\libe.a(_fixunsdfdi.o) (__fixdfdi)
c:/program files (x86)/microchip/xc32/v2.05/bin/bin/../../lib/gcc/pic32mx/4.8.3\libgcc.a(_floatundidf.o)
                              c:/program files (x86)/microchip/xc32/v2.05/bin/bin/../../lib/gcc/pic32mx/4.8.3/../../../../pic32mx/lib\libc.a(doprnt_cdfFnopuxX.eo) (__floatundidf)
c:/program files (x86)/microchip/xc32/v2.05/bin/bin/../../lib/gcc/pic32mx/4.8.3\libgcc.a(_udivdi3.o)
                              c:/program files (x86)/microchip/xc32/v2.05/bin/bin/../../lib/gcc/pic32mx/4.8.3/../../../../pic32mx/lib\libc.a(doprnt_cdfFnopuxX.eo) (__udivdi3)
c:/program files (x86)/microchip/xc32/v2.05/bin/bin/../../lib/gcc/pic32mx/4.8.3\libgcc.a(_umoddi3.o)
                              c:/program files (x86)/microchip/xc32/v2.05/bin/bin/../../lib/gcc/pic32mx/4.8.3/../../../../pic32mx/lib\libc.a(doprnt_cdfFnopuxX.eo) (__umoddi3)
c:/program files (x86)/microchip/xc32/v2.05/bin/bin/../../lib/gcc/pic32mx/4.8.3\libgcc.a(floatunsidf.o)
                              c:/program files (x86)/microchip/xc32/v2.05/bin/bin/../../lib/gcc/pic32mx/4.8.3\libgcc.a(_floatundidf.o) (__floatunsidf)
c:/program files (x86)/microchip/xc32/v2.05/bin/bin/../../lib/gcc/pic32mx/4.8.3/../../../../pic32mx/lib\libpic32.a(write.o)
                              c:/program files (x86)/microchip/xc32/v2.05/bin/bin/../../lib/gcc/pic32mx/4.8.3/../../../../pic32mx/lib\libc.a(_fputc_simple.o) (write)
c:/program files (x86)/microchip/xc32/v2.05/bin/bin/../../lib/gcc/pic32mx/4.8.3/../../../../pic32mx/lib\libpic32.a(errno.o)
                              c:/program files (x86)/microchip/xc32/v2.05/bin/bin/../../lib/gcc/pic32mx/4.8.3/../../../../pic32mx/lib\libm.a(__strtof.o) (errno)
c:/program files (x86)/microchip/xc32/v2.05/bin/bin/../../lib/gcc/pic32mx/4.8.3/../../../../pic32mx/lib\libm.a(litodp.o)
                              c:/program files (x86)/microchip/xc32/v2.05/bin/bin/../../lib/gcc/pic32mx/4.8.3\libgcc.a(floatunsidf.o) (litodp)

Allocating common symbols
Common symbol       size              file

txBuffer_get        0x1               build/default/debug/_ext/1360937237/D32.o
rxBuffer_put        0x1               build/default/debug/_ext/1360937237/D32.o
athenaLUData        0xc               build/default/debug/_ext/1548692632/Athena.o
global_data         0x4               build/default/debug/_ext/1360937237/D32.o
appData             0x3c              build/default/debug/_ext/1360937237/app.o
TX1_Buffer          0x80              build/default/debug/_ext/1360937237/thermal_commands.o
cdcReadBuffer       0x200             build/default/debug/_ext/1360937237/app.o
gUSBDeviceCDCSerialStateResponse
                    0xa               build/default/debug/_ext/308758920/usb_device_cdc.o
sysObj              0x8               build/default/debug/_ext/1171490990/initialization.o
cdcWriteBuffer      0x200             build/default/debug/_ext/1360937237/app.o
endPointTable1      0x80              build/default/debug/_ext/1171490990/initialization.o
rxBuffer            0x80              build/default/debug/_ext/1360937237/D32.o
gUSBDeviceCDCIRP    0x6c              build/default/debug/_ext/308758920/usb_device_cdc.o
rxBuffer_get        0x1               build/default/debug/_ext/1360937237/D32.o
txBuffer            0x80              build/default/debug/_ext/1360937237/D32.o
command_to_process  0x80              build/default/debug/_ext/1360937237/D32.o
gUSBDeviceCDCInstance
                    0x44              build/default/debug/_ext/308758920/usb_device_cdc.o
coreTmr             0x10              build/default/debug/_ext/1249264884/plib_coretimer.o
gDrvUSBGroup        0xf8              build/default/debug/_ext/2128569739/drv_usbfs.o
gUSBDeviceCdcCommonDataObj
                    0x2               build/default/debug/_ext/308758920/usb_device_cdc.o
txBuffer_put        0x1               build/default/debug/_ext/1360937237/D32.o
athenaReadData      0x12              build/default/debug/_ext/1548692632/Athena.o
newTempSet          0x4               build/default/debug/_ext/1360937237/D32.o
oldNLSetTemp        0x4               build/default/debug/_ext/1548692632/Athena.o
athenaWriteData     0xe               build/default/debug/_ext/1548692632/Athena.o

Microchip PIC32 Memory-Usage Report

kseg0 Program-Memory Usage
section                    address  length [bytes]      (dec)  Description
-------                 ----------  -------------------------  -----------
.text._vfprintf_cdfFnop 0x9d000000         0x1554        5460   
.text._DRV_USBFS_DEVICE 0x9d001554          0x674        1652   
.text.dp32mul           0x9d001bc8          0x4b8        1208   
.text                   0x9d002080          0x8bc        2236  App's exec code 
.text.dp32subadd        0x9d00293c          0x430        1072   
.text.__strtof          0x9d002d6c          0x358         856   
.text.dp32mul           0x9d0030c4          0x32c         812   
.dinit                  0x9d0033f0          0x320         800   
.rodata                 0x9d003710          0x2b8         696  Read-only const 
.text.APP_Tasks         0x9d0039c8          0x2a0         672   
.text.fpsubadd          0x9d003c68          0x278         632   
.text.scale             0x9d003ee0          0x23c         572   
.text.fp32div           0x9d00411c          0x230         560   
.text._USB_DEVICE_Proce 0x9d00434c          0x214         532   
.text.DRV_USBFS_DEVICE_ 0x9d004560          0x210         528   
.text._USB_DEVICE_Proce 0x9d004770          0x20c         524   
.text._USB_DEVICE_Event 0x9d00497c          0x204         516   
.text._USB_DEVICE_Contr 0x9d004b80          0x1fc         508   
.text.USB_DEVICE_CDC_Wr 0x9d004d7c          0x1cc         460   
.text.fp32mul           0x9d004f48          0x1bc         444   
.text.DRV_USBFS_DEVICE_ 0x9d005104          0x1ac         428   
.text.USB_DEVICE_CDC_Re 0x9d0052b0          0x1ac         428   
.text.DRV_USBFS_DEVICE_ 0x9d00545c          0x19c         412   
.text.DRV_USBFS_DEVICE_ 0x9d0055f8          0x198         408   
.text.AthenaProcessExte 0x9d005790          0x18c         396   
.text._USB_DEVICE_Ep0Re 0x9d00591c          0x184         388   
.text._USB_DEVICE_CDC_A 0x9d005aa0          0x174         372   
.text.thermal_state_mac 0x9d005c14          0x174         372   
.text.USB_DEVICE_Tasks  0x9d005d88          0x170         368   
.text                   0x9d005ef8          0x168         360  App's exec code 
.rodata                 0x9d006060          0x160         352  Read-only const 
.text.USB_DEVICE_Initia 0x9d0061c0          0x15c         348   
.text._USB_DEVICE_CDC_I 0x9d00631c          0x158         344   
.text.process_thermal   0x9d006474          0x158         344   
.rodata                 0x9d0065cc          0x150         336  Read-only const 
.text.fputc             0x9d00671c          0x144         324   
.text.DRV_USBFS_DEVICE_ 0x9d006860          0x140         320   
.text.DRV_USBFS_DEVICE_ 0x9d0069a0          0x13c         316   
.text.parse_Thermal     0x9d006adc          0x12c         300   
.text._flsbuf           0x9d006c08          0x12c         300   
.text.dpcmp             0x9d006d34          0x12c         300   
.text                   0x9d006e60          0x120         288  App's exec code 
.text.DRV_USBFS_Initial 0x9d006f80          0x11c         284   
.text.setread_int       0x9d00709c          0x11c         284   
.text.DRV_USBFS_DEVICE_ 0x9d0071b8          0x114         276   
.text.WriteAthena       0x9d0072cc          0x114         276   
.text.CORE_TIMER_Handle 0x9d0073e0          0x110         272   
.text.USB_1_Handler     0x9d0074f0          0x110         272   
.text.APP_USBDeviceCDCE 0x9d007600          0x10c         268   
.text.setread_float     0x9d00770c          0x10c         268   
.rodata                 0x9d007818          0x104         260  Read-only const 
.text.__ldexpf          0x9d00791c          0x104         260   
.text._USB_DEVICE_Confi 0x9d007a20          0x100         256   
.text._USB_DEVICE_Proce 0x9d007b20          0x100         256   
.text._USB_DEVICE_CDC_C 0x9d007c20           0xf8         248   
.text.AthenaExtractTemp 0x9d007d18           0xf8         248   
.rodata                 0x9d007e10           0xf0         240  Read-only const 
.text.__fixdfdi         0x9d007f00           0xe8         232   
.text.APP_USBDeviceEven 0x9d007fe8           0xe0         224   
.text.general_exception 0x9d0080c8           0xdc         220   
.text._DRV_USBFS_DEVICE 0x9d0081a4           0xd8         216   
.text._USB_DEVICE_GetSt 0x9d00827c           0xd4         212   
.text.SYS_Initialize    0x9d008350           0xd0         208   
.text._USB_DEVICE_Ep0Tr 0x9d008420           0xc0         192   
.text.thermal_fan       0x9d0084e0           0xbc         188   
.text.get_entry         0x9d00859c           0xb0         176   
.text.parse_Athena_pack 0x9d00864c           0xac         172   
.text.process_RX_CLI    0x9d0086f8           0xac         172   
.text.fptodp            0x9d0087a4           0xac         172   
.text._USB_DEVICE_DeIni 0x9d008850           0xa8         168   
.text._USB_DEVICE_CDC_R 0x9d0088f8           0xa8         168   
.text._USB_DEVICE_CDC_W 0x9d0089a0           0xa8         168   
.text.atoi              0x9d008a48           0xa8         168   
.text.libm              0x9d008af0           0xa8         168   
.text.AthenaInit        0x9d008b98           0xa4         164   
.text.CORE_TIMER_Interr 0x9d008c3c           0x9c         156   
.text._USB_DEVICE_Forwa 0x9d008cd8           0x9c         156   
.text.fpcmp             0x9d008d74           0x9c         156   
.text.write             0x9d008e10           0x9c         156   
.text.PlaceTemp         0x9d008eac           0x98         152   
.text.help              0x9d008f44           0x8c         140   
.text.__orderdf2        0x9d008fd0           0x8c         140   
.text.parse_General_pac 0x9d00905c           0x88         136   
.text.proccess_command  0x9d0090e4           0x88         136   
.text._USB_DEVICE_GetFu 0x9d00916c           0x84         132   
.text._USB_DEVICE_FindE 0x9d0091f0           0x84         132   
.text.USB_DEVICE_Contro 0x9d009274           0x84         132   
.text.__fixunsdfdi      0x9d0092f8           0x80         128   
.text.USB_DEVICE_Contro 0x9d009378           0x7c         124   
.text.Wait              0x9d0093f4           0x7c         124   
.text.AthenaGetStatus   0x9d009470           0x78         120   
.text.litodp            0x9d0094e8           0x78         120   
.text.DRV_USBFS_DEVICE_ 0x9d009560           0x70         112   
.text._USB_DEVICE_CDC_D 0x9d0095d0           0x6c         108   
.text.APP_Initialize    0x9d00963c           0x6c         108   
.text._DRV_USBFS_DEVICE 0x9d0096a8           0x68         104   
.text.CORETIMER_Start   0x9d009710           0x68         104   
.text.GPIO_Initialize   0x9d009778           0x68         104   
.text._sprintf_cdfFnopu 0x9d0097e0           0x68         104   
.text                   0x9d009848           0x64         100  App's exec code 
.text.DRV_USBFS_Tasks_I 0x9d0098ac           0x60          96   
.text.DRV_USBFS_ClientE 0x9d00990c           0x60          96   
.text.CORE_SOFTWARE_0_H 0x9d00996c           0x60          96   
.text.TIMER_1_Handler   0x9d0099cc           0x60          96   
.text.main              0x9d009a2c           0x60          96   
.text.data_to_send      0x9d009a8c           0x60          96   
.text.AthenaSetSetTemp  0x9d009aec           0x60          96   
.text.sitofp            0x9d009b4c           0x60          96   
.text.USB_DEVICE_Endpoi 0x9d009bac           0x5c          92   
.text.AthenaGetSetTemp  0x9d009c08           0x5c          92   
.text.SYS_INT_SourceDis 0x9d009c64           0x58          88   
.text.USB_DEVICE_EventH 0x9d009cbc           0x58          88   
.text.USB_DEVICE_IRPSub 0x9d009d14           0x58          88   
.text.Add_TX_CLI_string 0x9d009d6c           0x58          88   
.text.AthenaGetTemp     0x9d009dc4           0x58          88   
.text.main_entry        0x9d009e1c           0x54          84   
.text.USB_DEVICE_Detach 0x9d009e70           0x50          80   
.text.stage_Temp        0x9d009ec0           0x50          80   
.text.DRV_USBFS_DEVICE_ 0x9d009f10           0x4c          76   
.text.DRV_USBFS_DEVICE_ 0x9d009f5c           0x4c          76   
.text.DRV_USBFS_DEVICE_ 0x9d009fa8           0x4c          76   
.text.USB_DEVICE_Open   0x9d009ff4           0x4c          76   
.text._USB_DEVICE_Redir 0x9d00a040           0x4c          76   
.text._USB_DEVICE_CDC_E 0x9d00a08c           0x4c          76   
.text.USB_DEVICE_Attach 0x9d00a0d8           0x48          72   
.text.USB_DEVICE_Endpoi 0x9d00a120           0x48          72   
.text.USB_DEVICE_Contro 0x9d00a168           0x48          72   
.text.USB_DEVICE_IRPCan 0x9d00a1b0           0x48          72   
.vector_default         0x9d00a1f8           0x48          72   
.text.DRV_USBFS_Open    0x9d00a240           0x44          68   
.text                   0x9d00a284           0x88         136  App's exec code 
.text.CORETIMER_Initial 0x9d00a30c           0x40          64   
.text.APP_StateReset    0x9d00a34c           0x40          64   
.text.init_thermal_cont 0x9d00a38c           0x40          64   
.text.Restart_Controlle 0x9d00a3cc           0x40          64   
.text.EVIC_Initialize   0x9d00a40c           0x38          56   
.text.UART1_Initialize  0x9d00a444           0x38          56   
.text.UART2_Initialize  0x9d00a47c           0x38          56   
.text.USB_DEVICE_CDC_Ev 0x9d00a4b4           0x38          56   
.text.Add_RX_CLI        0x9d00a4ec           0x38          56   
.text.Add_TX_CLI        0x9d00a524           0x38          56   
.text.DRV_USBFS_DEVICE_ 0x9d00a55c           0x34          52   
.text.get_TX_CLI        0x9d00a590           0x34          52   
.text.get_RX_CLI        0x9d00a5c4           0x34          52   
.text.init_thermal_leds 0x9d00a5f8           0x30          48   
.text.DRV_USBFS_Close   0x9d00a628           0x2c          44   
.text._DRV_USBFS_DEVICE 0x9d00a654           0x2c          44   
.rodata                 0x9d00a680           0x2c          44  Read-only const 
.text.SYS_Tasks         0x9d00a6ac           0x2c          44   
.text.tick_core_timer   0x9d00a6d8           0x2c          44   
.text.DRV_USBFS_DEVICE_ 0x9d00a704           0x28          40   
.text.DRV_USBFS_DEVICE_ 0x9d00a72c           0x28          40   
.text.DRV_USBFS_DEVICE_ 0x9d00a754           0x28          40   
.text.EVIC_SourceEnable 0x9d00a77c           0x28          40   
.text.EVIC_SourceDisabl 0x9d00a7a4           0x28          40   
.text.EVIC_SourceStatus 0x9d00a7cc           0x28          40   
.text._USB_DEVICE_Clien 0x9d00a7f4           0x28          40   
.text._general_exceptio 0x9d00a81c           0x28          40   
.text._bootstrap_except 0x9d00a844           0x28          40   
.text.ShutDownStage     0x9d00a86c           0x28          40   
.text.set_overheat_flui 0x9d00a894           0x28          40   
.text.EVIC_SourceIsEnab 0x9d00a8bc           0x24          36   
.text.EVIC_INT_Restore  0x9d00a8e0           0x24          36   
.text.toupper           0x9d00a904           0x24          36   
.text.EVIC_INT_Disable  0x9d00a928           0x20          32   
.text.UART2_WriteByte   0x9d00a948           0x20          32   
.text._USB_DEVICE_CDC_G 0x9d00a968           0x20          32   
.text.DRV_USBFS_Tasks   0x9d00a988            0x8           8   
.rodata                 0x9d00a990           0x20          32  Read-only const 
.text.ShutDown          0x9d00a9b0           0x20          32   
.text.set_high_fluid_le 0x9d00a9d0           0x20          32   
.text.set_low_fluid_led 0x9d00a9f0           0x20          32   
.text.clr_low_fluid_led 0x9d00aa10           0x20          32   
.text.init_power_supply 0x9d00aa30           0x20          32   
.text.DRV_USBFS_USB_Han 0x9d00aa50           0x1c          28   
.text.CLK_Initialize    0x9d00aa6c           0x1c          28   
.text.SYS_INT_Disable   0x9d00aa88           0x1c          28   
.text.SYS_INT_Restore   0x9d00aaa4           0x1c          28   
.text.timeout_handler   0x9d00aac0           0x1c          28   
.text.atof              0x9d00aadc           0x1c          28   
.text.strtof            0x9d00aaf8           0x1c          28   
.text.APP_ProcessSwitch 0x9d00ab14           0x18          24   
.text                   0x9d00ab2c           0x18          24  App's exec code 
.rodata                 0x9d00ab44           0x18          24  Read-only const 
.text.DRV_USBFS_DEVICE_ 0x9d00ab5c           0x14          20   
.text.CORETIMER_Callbac 0x9d00ab70           0x14          20   
.text.UART2_Transmitter 0x9d00ab84           0x14          20   
.rodata                 0x9d00ab98           0x14          20  Read-only const 
.text.init_CLI          0x9d00abac           0x14          20   
.text.nex_TX_data       0x9d00abc0           0x14          20   
.text.nex_RX_data       0x9d00abd4           0x14          20   
.text.AthenaOn          0x9d00abe8           0x14          20   
.rodata                 0x9d00abfc           0x14          20  Read-only const 
.text.negsf2            0x9d00ac10           0x14          20   
.text.UART2_ReadByte    0x9d00ac24           0x10          16   
.text.UART2_ReceiverIsR 0x9d00ac34           0x10          16   
.text.check_fluid_switc 0x9d00ac44           0x10          16   
.text.check_overheat_sw 0x9d00ac54           0x10          16   
.text.check_rst_switch  0x9d00ac64           0x10          16   
.text.__exception_handl 0x9d00ac74            0xc          12   
.text.get_core_timer    0x9d00ac80            0xc          12   
.text.clr_core_timer    0x9d00ac8c            0xc          12   
.text.clr_system_timer  0x9d00ac98            0xc          12   
.text._mon_putc         0x9d00aca4            0x8           8   
.text.parse_Julabo_pack 0x9d00acac            0x8           8   
.text._on_reset         0x9d00acb4            0x8           8   
.text._on_bootstrap     0x9d00acbc            0x8           8   
.rodata                 0x9d00acc4            0x4           4  Read-only const 
.rodata                 0x9d00acc8           0x10          16  Read-only const 
      Total kseg0_program_mem used  :      0xacd8       44248  16.9% of 0x40000

kseg0 Boot-Memory Usage
section                    address  length [bytes]      (dec)  Description
-------                 ----------  -------------------------  -----------
         Total kseg0_boot_mem used  :           0           0  <1% of 0x970

Exception-Memory Usage 
section                    address  length [bytes]      (dec)  Description
-------                 ----------  -------------------------  -----------
.app_excpt              0x9fc01180           0x10          16  General-Exception 
.vector_0               0x9fc01200            0x8           8  Interrupt Vector 0 
.vector_1               0x9fc01220            0x8           8  Interrupt Vector 1 
.vector_2               0x9fc01240            0x8           8  Interrupt Vector 2 
.vector_3               0x9fc01260            0x8           8  Interrupt Vector 3 
.vector_4               0x9fc01280            0x8           8  Interrupt Vector 4 
.vector_5               0x9fc012a0            0x8           8  Interrupt Vector 5 
.vector_6               0x9fc012c0            0x8           8  Interrupt Vector 6 
.vector_7               0x9fc012e0            0x8           8  Interrupt Vector 7 
.vector_8               0x9fc01300            0x8           8  Interrupt Vector 8 
.vector_9               0x9fc01320            0x8           8  Interrupt Vector 9 
.vector_10              0x9fc01340            0x8           8  Interrupt Vector 10 
.vector_11              0x9fc01360            0x8           8  Interrupt Vector 11 
.vector_12              0x9fc01380            0x8           8  Interrupt Vector 12 
.vector_13              0x9fc013a0            0x8           8  Interrupt Vector 13 
.vector_14              0x9fc013c0            0x8           8  Interrupt Vector 14 
.vector_15              0x9fc013e0            0x8           8  Interrupt Vector 15 
.vector_16              0x9fc01400            0x8           8  Interrupt Vector 16 
.vector_17              0x9fc01420            0x8           8  Interrupt Vector 17 
.vector_18              0x9fc01440            0x8           8  Interrupt Vector 18 
.vector_19              0x9fc01460            0x8           8  Interrupt Vector 19 
.vector_20              0x9fc01480            0x8           8  Interrupt Vector 20 
.vector_21              0x9fc014a0            0x8           8  Interrupt Vector 21 
.vector_22              0x9fc014c0            0x8           8  Interrupt Vector 22 
.vector_23              0x9fc014e0            0x8           8  Interrupt Vector 23 
.vector_24              0x9fc01500            0x8           8  Interrupt Vector 24 
.vector_25              0x9fc01520            0x8           8  Interrupt Vector 25 
.vector_26              0x9fc01540            0x8           8  Interrupt Vector 26 
.vector_27              0x9fc01560            0x8           8  Interrupt Vector 27 
.vector_28              0x9fc01580            0x8           8  Interrupt Vector 28 
.vector_29              0x9fc015a0            0x8           8  Interrupt Vector 29 
.vector_30              0x9fc015c0            0x8           8  Interrupt Vector 30 
.vector_31              0x9fc015e0            0x8           8  Interrupt Vector 31 
.vector_32              0x9fc01600            0x8           8  Interrupt Vector 32 
.vector_33              0x9fc01620            0x8           8  Interrupt Vector 33 
.vector_34              0x9fc01640            0x8           8  Interrupt Vector 34 
.vector_35              0x9fc01660            0x8           8  Interrupt Vector 35 
.vector_36              0x9fc01680            0x8           8  Interrupt Vector 36 
.vector_37              0x9fc016a0            0x8           8  Interrupt Vector 37 
.vector_38              0x9fc016c0            0x8           8  Interrupt Vector 38 
.vector_39              0x9fc016e0            0x8           8  Interrupt Vector 39 
.vector_40              0x9fc01700            0x8           8  Interrupt Vector 40 
.vector_41              0x9fc01720            0x8           8  Interrupt Vector 41 
.vector_42              0x9fc01740            0x8           8  Interrupt Vector 42 
.vector_43              0x9fc01760            0x8           8  Interrupt Vector 43 
.vector_44              0x9fc01780            0x8           8  Interrupt Vector 44 
.vector_45              0x9fc017a0            0x8           8  Interrupt Vector 45 
          Total exception_mem used  :       0x180         384  9.4% of 0x1000

kseg1 Boot-Memory Usage
section                    address  length [bytes]      (dec)  Description
-------                 ----------  -------------------------  -----------
.reset                  0xbfc00000          0x208         520  Reset handler 
.bev_excpt              0xbfc00380           0x10          16  BEV-Exception 
         Total kseg1_boot_mem used  :       0x218         536  45.9% of 0x490
        --------------------------------------------------------------------------
         Total Program Memory used  :      0xb070       45168  16.7% of 0x41e00
        --------------------------------------------------------------------------


kseg0 Data-Memory Usage
section                    address  length [bytes]      (dec)  Description
-------                 ----------  -------------------------  -----------
reserve_data_0_kseg0    0x80000000          0x200         512   
         Total kseg0_data_mem used  :       0x200         512  100.0% of 0x200

kseg1 Data-Memory Usage
section                    address  length [bytes]      (dec)  Description
-------                 ----------  -------------------------  -----------
reserve_data_0_kseg1    0xa0000000          0x200         512   
.sdata                  0xa0000200           0x28          40  Small init data 
.sbss                   0xa0000228           0x6c         108  Small uninit data 
.data                   0xa0000294          0x144         324  Initialized data 
.bss.errno              0xa00003d8            0x4           4   
.bss                    0xa0000400          0x8ec        2284  Uninitialized data 
.bss                    0xa0000cec           0xf4         244  Uninitialized data 
.data                   0xa0000de0           0x50          80  Initialized data 
.bss                    0xa0000e30           0x44          68  Uninitialized data 
.data                   0xa0000e74           0x3c          60  Initialized data 
         Total kseg1_data_mem used  :       0xe8c        3724  11.4% of 0x8000
        --------------------------------------------------------------------------
            Total Data Memory used  :      0x108c        4236  12.7% of 0x8200
        --------------------------------------------------------------------------


Dynamic Data-Memory Reservation
section                    address  length [bytes]      (dec)  Description
-------                 ----------  -------------------------  -----------
heap                    0xa0000eb8          0x200         512  Reserved for heap 
stack                   0xa00010d0         0x6f28       28456  Reserved for stack 

        --------------------------------------------------------------------------

Discarded input sections

 .text          0x00000000        0x0 c:/program files (x86)/microchip/xc32/v2.05/bin/bin/../../lib/gcc/pic32mx/4.8.3/../../../../pic32mx/lib/./proc/32MX440F256H/crt0_mips32r2.o
 .data          0x00000000        0x0 c:/program files (x86)/microchip/xc32/v2.05/bin/bin/../../lib/gcc/pic32mx/4.8.3/../../../../pic32mx/lib/./proc/32MX440F256H/crt0_mips32r2.o
 .bss           0x00000000        0x0 c:/program files (x86)/microchip/xc32/v2.05/bin/bin/../../lib/gcc/pic32mx/4.8.3/../../../../pic32mx/lib/./proc/32MX440F256H/crt0_mips32r2.o
 .text          0x00000000        0x0 c:/program files (x86)/microchip/xc32/v2.05/bin/bin/../../lib/gcc/pic32mx/4.8.3/../../../../pic32mx/lib\software-debug-break.o
 .data          0x00000000        0x0 c:/program files (x86)/microchip/xc32/v2.05/bin/bin/../../lib/gcc/pic32mx/4.8.3/../../../../pic32mx/lib\software-debug-break.o
 .bss           0x00000000        0x0 c:/program files (x86)/microchip/xc32/v2.05/bin/bin/../../lib/gcc/pic32mx/4.8.3/../../../../pic32mx/lib\software-debug-break.o
 .reginfo       0x00000000       0x18 c:/program files (x86)/microchip/xc32/v2.05/bin/bin/../../lib/gcc/pic32mx/4.8.3/../../../../pic32mx/lib\software-debug-break.o
 .text          0x00000000        0x0 build/default/debug/_ext/2128569739/drv_usbfs.o
 .data          0x00000000        0x0 build/default/debug/_ext/2128569739/drv_usbfs.o
 .bss           0x00000000        0x0 build/default/debug/_ext/2128569739/drv_usbfs.o
 .reginfo       0x00000000       0x18 build/default/debug/_ext/2128569739/drv_usbfs.o
 .text.DRV_USBFS_Deinitialize
                0x00000000       0x6c build/default/debug/_ext/2128569739/drv_usbfs.o
 .text.DRV_USBFS_Status
                0x00000000       0x34 build/default/debug/_ext/2128569739/drv_usbfs.o
 .text.DRV_USBFS_Tasks_ISR_USBDMA
                0x00000000        0x8 build/default/debug/_ext/2128569739/drv_usbfs.o
 .text          0x00000000        0x0 build/default/debug/_ext/2128569739/drv_usbfs_device.o
 .bss           0x00000000        0x0 build/default/debug/_ext/2128569739/drv_usbfs_device.o
 .reginfo       0x00000000       0x18 build/default/debug/_ext/2128569739/drv_usbfs_device.o
 .text._DRV_USBFS_DEVICE_EndpointObjectEnable
                0x00000000       0x28 build/default/debug/_ext/2128569739/drv_usbfs_device.o
 .text          0x00000000        0x0 build/default/debug/_ext/60165520/plib_clk.o
 .data          0x00000000        0x0 build/default/debug/_ext/60165520/plib_clk.o
 .bss           0x00000000        0x0 build/default/debug/_ext/60165520/plib_clk.o
 .reginfo       0x00000000       0x18 build/default/debug/_ext/60165520/plib_clk.o
 .text          0x00000000        0x0 build/default/debug/_ext/1249264884/plib_coretimer.o
 .data          0x00000000        0x0 build/default/debug/_ext/1249264884/plib_coretimer.o
 .bss           0x00000000        0x0 build/default/debug/_ext/1249264884/plib_coretimer.o
 .reginfo       0x00000000       0x18 build/default/debug/_ext/1249264884/plib_coretimer.o
 .text.CORETIMER_PeriodSet
                0x00000000        0xc build/default/debug/_ext/1249264884/plib_coretimer.o
 .text.CORETIMER_Stop
                0x00000000       0x34 build/default/debug/_ext/1249264884/plib_coretimer.o
 .text.CORETIMER_FrequencyGet
                0x00000000        0xc build/default/debug/_ext/1249264884/plib_coretimer.o
 .text.CORETIMER_DelayMs
                0x00000000       0x44 build/default/debug/_ext/1249264884/plib_coretimer.o
 .text.CORETIMER_DelayUs
                0x00000000       0x34 build/default/debug/_ext/1249264884/plib_coretimer.o
 .text          0x00000000        0x0 build/default/debug/_ext/1865200349/plib_evic.o
 .data          0x00000000        0x0 build/default/debug/_ext/1865200349/plib_evic.o
 .bss           0x00000000        0x0 build/default/debug/_ext/1865200349/plib_evic.o
 .reginfo       0x00000000       0x18 build/default/debug/_ext/1865200349/plib_evic.o
 .text.EVIC_SourceStatusGet
                0x00000000       0x24 build/default/debug/_ext/1865200349/plib_evic.o
 .text.EVIC_SourceStatusSet
                0x00000000       0x28 build/default/debug/_ext/1865200349/plib_evic.o
 .text.EVIC_INT_Enable
                0x00000000       0x18 build/default/debug/_ext/1865200349/plib_evic.o
 .text          0x00000000        0x0 build/default/debug/_ext/1865254177/plib_gpio.o
 .data          0x00000000        0x0 build/default/debug/_ext/1865254177/plib_gpio.o
 .bss           0x00000000        0x0 build/default/debug/_ext/1865254177/plib_gpio.o
 .reginfo       0x00000000       0x18 build/default/debug/_ext/1865254177/plib_gpio.o
 .text.GPIO_PortRead
                0x00000000       0x1c build/default/debug/_ext/1865254177/plib_gpio.o
 .text.GPIO_PortWrite
                0x00000000       0x30 build/default/debug/_ext/1865254177/plib_gpio.o
 .text.GPIO_PortLatchRead
                0x00000000       0x1c build/default/debug/_ext/1865254177/plib_gpio.o
 .text.GPIO_PortSet
                0x00000000       0x1c build/default/debug/_ext/1865254177/plib_gpio.o
 .text.GPIO_PortClear
                0x00000000       0x1c build/default/debug/_ext/1865254177/plib_gpio.o
 .text.GPIO_PortToggle
                0x00000000       0x1c build/default/debug/_ext/1865254177/plib_gpio.o
 .text.GPIO_PortInputEnable
                0x00000000       0x1c build/default/debug/_ext/1865254177/plib_gpio.o
 .text.GPIO_PortOutputEnable
                0x00000000       0x1c build/default/debug/_ext/1865254177/plib_gpio.o
 .text          0x00000000        0x0 build/default/debug/_ext/1865657120/plib_uart1.o
 .data          0x00000000        0x0 build/default/debug/_ext/1865657120/plib_uart1.o
 .bss           0x00000000        0x0 build/default/debug/_ext/1865657120/plib_uart1.o
 .reginfo       0x00000000       0x18 build/default/debug/_ext/1865657120/plib_uart1.o
 .text.UART1_ErrorClear
                0x00000000       0x64 build/default/debug/_ext/1865657120/plib_uart1.o
 .text.UART1_SerialSetup
                0x00000000      0x108 build/default/debug/_ext/1865657120/plib_uart1.o
 .text.UART1_AutoBaudQuery
                0x00000000       0x10 build/default/debug/_ext/1865657120/plib_uart1.o
 .text.UART1_AutoBaudSet
                0x00000000       0x18 build/default/debug/_ext/1865657120/plib_uart1.o
 .text.UART1_Read
                0x00000000       0xbc build/default/debug/_ext/1865657120/plib_uart1.o
 .text.UART1_Write
                0x00000000       0x84 build/default/debug/_ext/1865657120/plib_uart1.o
 .text.UART1_ErrorGet
                0x00000000       0x3c build/default/debug/_ext/1865657120/plib_uart1.o
 .text.UART1_WriteByte
                0x00000000       0x20 build/default/debug/_ext/1865657120/plib_uart1.o
 .text.UART1_TransmitterIsReady
                0x00000000       0x14 build/default/debug/_ext/1865657120/plib_uart1.o
 .text.UART1_TransmitComplete
                0x00000000       0x10 build/default/debug/_ext/1865657120/plib_uart1.o
 .text.UART1_ReadByte
                0x00000000       0x10 build/default/debug/_ext/1865657120/plib_uart1.o
 .text.UART1_ReceiverIsReady
                0x00000000       0x10 build/default/debug/_ext/1865657120/plib_uart1.o
 .text          0x00000000        0x0 build/default/debug/_ext/1865657120/plib_uart2.o
 .data          0x00000000        0x0 build/default/debug/_ext/1865657120/plib_uart2.o
 .bss           0x00000000        0x0 build/default/debug/_ext/1865657120/plib_uart2.o
 .reginfo       0x00000000       0x18 build/default/debug/_ext/1865657120/plib_uart2.o
 .text.UART2_ErrorClear
                0x00000000       0x64 build/default/debug/_ext/1865657120/plib_uart2.o
 .text.UART2_SerialSetup
                0x00000000      0x108 build/default/debug/_ext/1865657120/plib_uart2.o
 .text.UART2_AutoBaudQuery
                0x00000000       0x10 build/default/debug/_ext/1865657120/plib_uart2.o
 .text.UART2_AutoBaudSet
                0x00000000       0x18 build/default/debug/_ext/1865657120/plib_uart2.o
 .text.UART2_Read
                0x00000000       0xbc build/default/debug/_ext/1865657120/plib_uart2.o
 .text.UART2_Write
                0x00000000       0x84 build/default/debug/_ext/1865657120/plib_uart2.o
 .text.UART2_ErrorGet
                0x00000000       0x3c build/default/debug/_ext/1865657120/plib_uart2.o
 .text.UART2_TransmitComplete
                0x00000000       0x10 build/default/debug/_ext/1865657120/plib_uart2.o
 .text          0x00000000        0x0 build/default/debug/_ext/163028504/xc32_monitor.o
 .data          0x00000000        0x0 build/default/debug/_ext/163028504/xc32_monitor.o
 .bss           0x00000000        0x0 build/default/debug/_ext/163028504/xc32_monitor.o
 .reginfo       0x00000000       0x18 build/default/debug/_ext/163028504/xc32_monitor.o
 .text._mon_getc
                0x00000000        0x8 build/default/debug/_ext/163028504/xc32_monitor.o
 .text          0x00000000        0x0 build/default/debug/_ext/1881668453/sys_int.o
 .data          0x00000000        0x0 build/default/debug/_ext/1881668453/sys_int.o
 .bss           0x00000000        0x0 build/default/debug/_ext/1881668453/sys_int.o
 .reginfo       0x00000000       0x18 build/default/debug/_ext/1881668453/sys_int.o
 .text.SYS_INT_Enable
                0x00000000       0x1c build/default/debug/_ext/1881668453/sys_int.o
 .text.SYS_INT_SourceRestore
                0x00000000       0x28 build/default/debug/_ext/1881668453/sys_int.o
 .text          0x00000000        0x0 build/default/debug/_ext/308758920/usb_device.o
 .data          0x00000000        0x0 build/default/debug/_ext/308758920/usb_device.o
 .reginfo       0x00000000       0x18 build/default/debug/_ext/308758920/usb_device.o
 .text.USB_DEVICE_Status
                0x00000000       0x3c build/default/debug/_ext/308758920/usb_device.o
 .text.USB_DEVICE_Deinitialize
                0x00000000       0x38 build/default/debug/_ext/308758920/usb_device.o
 .text.USB_DEVICE_EndpointIsEnabled
                0x00000000       0x48 build/default/debug/_ext/308758920/usb_device.o
 .text.USB_DEVICE_EndpointStall
                0x00000000       0x40 build/default/debug/_ext/308758920/usb_device.o
 .text.USB_DEVICE_EndpointStallClear
                0x00000000       0x40 build/default/debug/_ext/308758920/usb_device.o
 .text.USB_DEVICE_EndpointIsStalled
                0x00000000       0x48 build/default/debug/_ext/308758920/usb_device.o
 .text.USB_DEVICE_IsSuspended
                0x00000000       0x2c build/default/debug/_ext/308758920/usb_device.o
 .text.USB_DEVICE_StateGet
                0x00000000       0x2c build/default/debug/_ext/308758920/usb_device.o
 .text.USB_DEVICE_Close
                0x00000000       0x2c build/default/debug/_ext/308758920/usb_device.o
 .text.USB_DEVICE_ClientStatusGet
                0x00000000       0x28 build/default/debug/_ext/308758920/usb_device.o
 .text.USB_DEVICE_ActiveConfigurationGet
                0x00000000       0x28 build/default/debug/_ext/308758920/usb_device.o
 .text.USB_DEVICE_ActiveSpeedGet
                0x00000000       0x2c build/default/debug/_ext/308758920/usb_device.o
 .text.USB_DEVICE_PowerStateSet
                0x00000000       0x38 build/default/debug/_ext/308758920/usb_device.o
 .text.USB_DEVICE_RemoteWakeupStatusGet
                0x00000000       0x28 build/default/debug/_ext/308758920/usb_device.o
 .text.USB_DEVICE_RemoteWakeupStop
                0x00000000       0x34 build/default/debug/_ext/308758920/usb_device.o
 .text.USB_DEVICE_RemoteWakeupStart
                0x00000000       0x34 build/default/debug/_ext/308758920/usb_device.o
 .text.USB_DEVICE_IRPCancel
                0x00000000       0x48 build/default/debug/_ext/308758920/usb_device.o
 .text._USB_DEVICE_EndpointMutexCreateFunction
                0x00000000       0x1c build/default/debug/_ext/308758920/usb_device.o
 .text._USB_DEVICE_EndpointMutexDeleteFunction
                0x00000000        0x8 build/default/debug/_ext/308758920/usb_device.o
 .text._USB_DEVICE_GetStringDescriptorRequestProcessAdvanced
                0x00000000       0xa8 build/default/debug/_ext/308758920/usb_device.o
 .text._USB_DEVICE_Other_Speed_Descriptor_Request
                0x00000000        0x8 build/default/debug/_ext/308758920/usb_device.o
 .text          0x00000000        0x0 build/default/debug/_ext/308758920/usb_device_cdc.o
 .data          0x00000000        0x0 build/default/debug/_ext/308758920/usb_device_cdc.o
 .bss           0x00000000        0x0 build/default/debug/_ext/308758920/usb_device_cdc.o
 .reginfo       0x00000000       0x18 build/default/debug/_ext/308758920/usb_device_cdc.o
 .text._USB_DEVICE_CDC_SerialStateSendIRPCallback
                0x00000000       0xa8 build/default/debug/_ext/308758920/usb_device_cdc.o
 .text.USB_DEVICE_CDC_ReadPacketSizeGet
                0x00000000       0x18 build/default/debug/_ext/308758920/usb_device_cdc.o
 .text.USB_DEVICE_CDC_WritePacketSizeGet
                0x00000000       0x18 build/default/debug/_ext/308758920/usb_device_cdc.o
 .text.USB_DEVICE_CDC_SerialStateNotificationSend
                0x00000000      0x1d0 build/default/debug/_ext/308758920/usb_device_cdc.o
 .text          0x00000000        0x0 build/default/debug/_ext/308758920/usb_device_cdc_acm.o
 .data          0x00000000        0x0 build/default/debug/_ext/308758920/usb_device_cdc_acm.o
 .bss           0x00000000        0x0 build/default/debug/_ext/308758920/usb_device_cdc_acm.o
 .reginfo       0x00000000       0x18 build/default/debug/_ext/308758920/usb_device_cdc_acm.o
 .text          0x00000000        0x0 build/default/debug/_ext/1171490990/initialization.o
 .data          0x00000000        0x0 build/default/debug/_ext/1171490990/initialization.o
 .bss           0x00000000        0x0 build/default/debug/_ext/1171490990/initialization.o
 .reginfo       0x00000000       0x18 build/default/debug/_ext/1171490990/initialization.o
 .text          0x00000000        0x0 build/default/debug/_ext/1171490990/interrupts.o
 .data          0x00000000        0x0 build/default/debug/_ext/1171490990/interrupts.o
 .bss           0x00000000        0x0 build/default/debug/_ext/1171490990/interrupts.o
 .reginfo       0x00000000       0x18 build/default/debug/_ext/1171490990/interrupts.o
 .text          0x00000000        0x0 build/default/debug/_ext/1171490990/exceptions.o
 .data          0x00000000        0x0 build/default/debug/_ext/1171490990/exceptions.o
 .bss           0x00000000        0x0 build/default/debug/_ext/1171490990/exceptions.o
 .reginfo       0x00000000       0x18 build/default/debug/_ext/1171490990/exceptions.o
 .text          0x00000000        0x0 build/default/debug/_ext/1171490990/usb_device_init_data.o
 .data          0x00000000        0x0 build/default/debug/_ext/1171490990/usb_device_init_data.o
 .bss           0x00000000        0x0 build/default/debug/_ext/1171490990/usb_device_init_data.o
 .reginfo       0x00000000       0x18 build/default/debug/_ext/1171490990/usb_device_init_data.o
 .text          0x00000000        0x0 build/default/debug/_ext/1171490990/tasks.o
 .data          0x00000000        0x0 build/default/debug/_ext/1171490990/tasks.o
 .bss           0x00000000        0x0 build/default/debug/_ext/1171490990/tasks.o
 .reginfo       0x00000000       0x18 build/default/debug/_ext/1171490990/tasks.o
 .text          0x00000000        0x0 build/default/debug/_ext/1360937237/main.o
 .data          0x00000000       0x10 build/default/debug/_ext/1360937237/main.o
 .bss           0x00000000        0x0 build/default/debug/_ext/1360937237/main.o
 .reginfo       0x00000000       0x18 build/default/debug/_ext/1360937237/main.o
 .text          0x00000000        0x0 build/default/debug/_ext/1360937237/app.o
 .data          0x00000000        0x0 build/default/debug/_ext/1360937237/app.o
 .bss           0x00000000        0x0 build/default/debug/_ext/1360937237/app.o
 .reginfo       0x00000000       0x18 build/default/debug/_ext/1360937237/app.o
 .text          0x00000000        0x0 build/default/debug/_ext/1360937237/D32.o
 .bss           0x00000000        0x0 build/default/debug/_ext/1360937237/D32.o
 .reginfo       0x00000000       0x18 build/default/debug/_ext/1360937237/D32.o
 .text.ExampleInterfaceFunction
                0x00000000        0x8 build/default/debug/_ext/1360937237/D32.o
 .rodata        0x00000000       0x20 build/default/debug/_ext/1360937237/D32.o
 .text          0x00000000        0x0 build/default/debug/_ext/1360937237/app_main.o
 .data          0x00000000        0x0 build/default/debug/_ext/1360937237/app_main.o
 .bss           0x00000000        0x0 build/default/debug/_ext/1360937237/app_main.o
 .reginfo       0x00000000       0x18 build/default/debug/_ext/1360937237/app_main.o
 .text.HighTempOn
                0x00000000       0x14 build/default/debug/_ext/1360937237/app_main.o
 .text.HighTempOff
                0x00000000       0x14 build/default/debug/_ext/1360937237/app_main.o
 .text.AthenaOff
                0x00000000       0x14 build/default/debug/_ext/1360937237/app_main.o
 .text          0x00000000        0x0 build/default/debug/_ext/1548692632/Athena.o
 .bss           0x00000000        0x0 build/default/debug/_ext/1548692632/Athena.o
 .reginfo       0x00000000       0x18 build/default/debug/_ext/1548692632/Athena.o
 .text          0x00000000        0x0 build/default/debug/_ext/1548692632/thermal_states.o
 .data          0x00000000        0x0 build/default/debug/_ext/1548692632/thermal_states.o
 .bss           0x00000000        0x0 build/default/debug/_ext/1548692632/thermal_states.o
 .reginfo       0x00000000       0x18 build/default/debug/_ext/1548692632/thermal_states.o
 .text.ExampleInterfaceFunction
                0x00000000        0x8 build/default/debug/_ext/1548692632/thermal_states.o
 .text.ShutDownFlow
                0x00000000       0x14 build/default/debug/_ext/1548692632/thermal_states.o
 .text.Init_Flow
                0x00000000       0x14 build/default/debug/_ext/1548692632/thermal_states.o
 .text.clr_high_fluid_led
                0x00000000       0x20 build/default/debug/_ext/1548692632/thermal_states.o
 .text.clr_overheat_fluid_led
                0x00000000       0x14 build/default/debug/_ext/1548692632/thermal_states.o
 .text.init_thermal_inputs
                0x00000000        0x8 build/default/debug/_ext/1548692632/thermal_states.o
 .text          0x00000000        0x0 build/default/debug/_ext/1360937237/thermal_commands.o
 .data          0x00000000        0x0 build/default/debug/_ext/1360937237/thermal_commands.o
 .bss           0x00000000        0x0 build/default/debug/_ext/1360937237/thermal_commands.o
 .reginfo       0x00000000       0x18 build/default/debug/_ext/1360937237/thermal_commands.o
 .text.ExampleInterfaceFunction
                0x00000000        0x8 build/default/debug/_ext/1360937237/thermal_commands.o
 .text          0x00000000        0x0 c:/program files (x86)/microchip/xc32/v2.05/bin/bin/../../lib/gcc/pic32mx/4.8.3/../../../../pic32mx/lib/./proc/32MX440F256H\processor.o
 .data          0x00000000        0x0 c:/program files (x86)/microchip/xc32/v2.05/bin/bin/../../lib/gcc/pic32mx/4.8.3/../../../../pic32mx/lib/./proc/32MX440F256H\processor.o
 .bss           0x00000000        0x0 c:/program files (x86)/microchip/xc32/v2.05/bin/bin/../../lib/gcc/pic32mx/4.8.3/../../../../pic32mx/lib/./proc/32MX440F256H\processor.o
 .reginfo       0x00000000       0x18 c:/program files (x86)/microchip/xc32/v2.05/bin/bin/../../lib/gcc/pic32mx/4.8.3/../../../../pic32mx/lib/./proc/32MX440F256H\processor.o
 .text          0x00000000        0x0 c:/program files (x86)/microchip/xc32/v2.05/bin/bin/../../lib/gcc/pic32mx/4.8.3/../../../../pic32mx/lib/./proc/32MX440F256H\default_isr_vectors.o
 .data          0x00000000        0x0 c:/program files (x86)/microchip/xc32/v2.05/bin/bin/../../lib/gcc/pic32mx/4.8.3/../../../../pic32mx/lib/./proc/32MX440F256H\default_isr_vectors.o
 .bss           0x00000000        0x0 c:/program files (x86)/microchip/xc32/v2.05/bin/bin/../../lib/gcc/pic32mx/4.8.3/../../../../pic32mx/lib/./proc/32MX440F256H\default_isr_vectors.o
 .reginfo       0x00000000       0x18 c:/program files (x86)/microchip/xc32/v2.05/bin/bin/../../lib/gcc/pic32mx/4.8.3/../../../../pic32mx/lib/./proc/32MX440F256H\default_isr_vectors.o
 .discard       0x00000000       0xb8 c:/program files (x86)/microchip/xc32/v2.05/bin/bin/../../lib/gcc/pic32mx/4.8.3/../../../../pic32mx/lib/./proc/32MX440F256H\default_isr_vectors.o
 .data          0x00000000        0x0 c:/program files (x86)/microchip/xc32/v2.05/bin/bin/../../lib/gcc/pic32mx/4.8.3/../../../../pic32mx/lib\pic32_software_reset.o
 .bss           0x00000000        0x0 c:/program files (x86)/microchip/xc32/v2.05/bin/bin/../../lib/gcc/pic32mx/4.8.3/../../../../pic32mx/lib\pic32_software_reset.o
 .reginfo       0x00000000       0x18 c:/program files (x86)/microchip/xc32/v2.05/bin/bin/../../lib/gcc/pic32mx/4.8.3/../../../../pic32mx/lib\pic32_software_reset.o
 .data          0x00000000        0x0 c:/program files (x86)/microchip/xc32/v2.05/bin/bin/../../lib/gcc/pic32mx/4.8.3/../../../../pic32mx/lib\libpic32.a(memcpy.o)
 .bss           0x00000000        0x0 c:/program files (x86)/microchip/xc32/v2.05/bin/bin/../../lib/gcc/pic32mx/4.8.3/../../../../pic32mx/lib\libpic32.a(memcpy.o)
 .reginfo       0x00000000       0x18 c:/program files (x86)/microchip/xc32/v2.05/bin/bin/../../lib/gcc/pic32mx/4.8.3/../../../../pic32mx/lib\libpic32.a(memcpy.o)
 .data          0x00000000        0x0 c:/program files (x86)/microchip/xc32/v2.05/bin/bin/../../lib/gcc/pic32mx/4.8.3/../../../../pic32mx/lib\libpic32.a(strcmp.o)
 .bss           0x00000000        0x0 c:/program files (x86)/microchip/xc32/v2.05/bin/bin/../../lib/gcc/pic32mx/4.8.3/../../../../pic32mx/lib\libpic32.a(strcmp.o)
 .reginfo       0x00000000       0x18 c:/program files (x86)/microchip/xc32/v2.05/bin/bin/../../lib/gcc/pic32mx/4.8.3/../../../../pic32mx/lib\libpic32.a(strcmp.o)
 .text          0x00000000        0x0 c:/program files (x86)/microchip/xc32/v2.05/bin/bin/../../lib/gcc/pic32mx/4.8.3/../../../../pic32mx/lib\libpic32.a(default-on-reset.o)
 .data          0x00000000        0x0 c:/program files (x86)/microchip/xc32/v2.05/bin/bin/../../lib/gcc/pic32mx/4.8.3/../../../../pic32mx/lib\libpic32.a(default-on-reset.o)
 .bss           0x00000000        0x0 c:/program files (x86)/microchip/xc32/v2.05/bin/bin/../../lib/gcc/pic32mx/4.8.3/../../../../pic32mx/lib\libpic32.a(default-on-reset.o)
 .reginfo       0x00000000       0x18 c:/program files (x86)/microchip/xc32/v2.05/bin/bin/../../lib/gcc/pic32mx/4.8.3/../../../../pic32mx/lib\libpic32.a(default-on-reset.o)
 .text          0x00000000        0x0 c:/program files (x86)/microchip/xc32/v2.05/bin/bin/../../lib/gcc/pic32mx/4.8.3/../../../../pic32mx/lib\libpic32.a(default-on-bootstrap.o)
 .data          0x00000000        0x0 c:/program files (x86)/microchip/xc32/v2.05/bin/bin/../../lib/gcc/pic32mx/4.8.3/../../../../pic32mx/lib\libpic32.a(default-on-bootstrap.o)
 .bss           0x00000000        0x0 c:/program files (x86)/microchip/xc32/v2.05/bin/bin/../../lib/gcc/pic32mx/4.8.3/../../../../pic32mx/lib\libpic32.a(default-on-bootstrap.o)
 .reginfo       0x00000000       0x18 c:/program files (x86)/microchip/xc32/v2.05/bin/bin/../../lib/gcc/pic32mx/4.8.3/../../../../pic32mx/lib\libpic32.a(default-on-bootstrap.o)
 .data          0x00000000        0x0 c:/program files (x86)/microchip/xc32/v2.05/bin/bin/../../lib/gcc/pic32mx/4.8.3/../../../../pic32mx/lib\libpic32.a(default-nmi-handler.o)
 .bss           0x00000000        0x0 c:/program files (x86)/microchip/xc32/v2.05/bin/bin/../../lib/gcc/pic32mx/4.8.3/../../../../pic32mx/lib\libpic32.a(default-nmi-handler.o)
 .reginfo       0x00000000       0x18 c:/program files (x86)/microchip/xc32/v2.05/bin/bin/../../lib/gcc/pic32mx/4.8.3/../../../../pic32mx/lib\libpic32.a(default-nmi-handler.o)
 .text          0x00000000        0x0 c:/program files (x86)/microchip/xc32/v2.05/bin/bin/../../lib/gcc/pic32mx/4.8.3/../../../../pic32mx/lib\libpic32.a(general-exception.o)
 .data          0x00000000        0x0 c:/program files (x86)/microchip/xc32/v2.05/bin/bin/../../lib/gcc/pic32mx/4.8.3/../../../../pic32mx/lib\libpic32.a(general-exception.o)
 .bss           0x00000000        0x0 c:/program files (x86)/microchip/xc32/v2.05/bin/bin/../../lib/gcc/pic32mx/4.8.3/../../../../pic32mx/lib\libpic32.a(general-exception.o)
 .reginfo       0x00000000       0x18 c:/program files (x86)/microchip/xc32/v2.05/bin/bin/../../lib/gcc/pic32mx/4.8.3/../../../../pic32mx/lib\libpic32.a(general-exception.o)
 .text          0x00000000        0x0 c:/program files (x86)/microchip/xc32/v2.05/bin/bin/../../lib/gcc/pic32mx/4.8.3/../../../../pic32mx/lib\libpic32.a(vector2.o)
 .data          0x00000000        0x0 c:/program files (x86)/microchip/xc32/v2.05/bin/bin/../../lib/gcc/pic32mx/4.8.3/../../../../pic32mx/lib\libpic32.a(vector2.o)
 .bss           0x00000000        0x0 c:/program files (x86)/microchip/xc32/v2.05/bin/bin/../../lib/gcc/pic32mx/4.8.3/../../../../pic32mx/lib\libpic32.a(vector2.o)
 .reginfo       0x00000000       0x18 c:/program files (x86)/microchip/xc32/v2.05/bin/bin/../../lib/gcc/pic32mx/4.8.3/../../../../pic32mx/lib\libpic32.a(vector2.o)
 .text          0x00000000        0x0 c:/program files (x86)/microchip/xc32/v2.05/bin/bin/../../lib/gcc/pic32mx/4.8.3/../../../../pic32mx/lib\libpic32.a(vector3.o)
 .data          0x00000000        0x0 c:/program files (x86)/microchip/xc32/v2.05/bin/bin/../../lib/gcc/pic32mx/4.8.3/../../../../pic32mx/lib\libpic32.a(vector3.o)
 .bss           0x00000000        0x0 c:/program files (x86)/microchip/xc32/v2.05/bin/bin/../../lib/gcc/pic32mx/4.8.3/../../../../pic32mx/lib\libpic32.a(vector3.o)
 .reginfo       0x00000000       0x18 c:/program files (x86)/microchip/xc32/v2.05/bin/bin/../../lib/gcc/pic32mx/4.8.3/../../../../pic32mx/lib\libpic32.a(vector3.o)
 .text          0x00000000        0x0 c:/program files (x86)/microchip/xc32/v2.05/bin/bin/../../lib/gcc/pic32mx/4.8.3/../../../../pic32mx/lib\libpic32.a(vector5.o)
 .data          0x00000000        0x0 c:/program files (x86)/microchip/xc32/v2.05/bin/bin/../../lib/gcc/pic32mx/4.8.3/../../../../pic32mx/lib\libpic32.a(vector5.o)
 .bss           0x00000000        0x0 c:/program files (x86)/microchip/xc32/v2.05/bin/bin/../../lib/gcc/pic32mx/4.8.3/../../../../pic32mx/lib\libpic32.a(vector5.o)
 .reginfo       0x00000000       0x18 c:/program files (x86)/microchip/xc32/v2.05/bin/bin/../../lib/gcc/pic32mx/4.8.3/../../../../pic32mx/lib\libpic32.a(vector5.o)
 .text          0x00000000        0x0 c:/program files (x86)/microchip/xc32/v2.05/bin/bin/../../lib/gcc/pic32mx/4.8.3/../../../../pic32mx/lib\libpic32.a(vector6.o)
 .data          0x00000000        0x0 c:/program files (x86)/microchip/xc32/v2.05/bin/bin/../../lib/gcc/pic32mx/4.8.3/../../../../pic32mx/lib\libpic32.a(vector6.o)
 .bss           0x00000000        0x0 c:/program files (x86)/microchip/xc32/v2.05/bin/bin/../../lib/gcc/pic32mx/4.8.3/../../../../pic32mx/lib\libpic32.a(vector6.o)
 .reginfo       0x00000000       0x18 c:/program files (x86)/microchip/xc32/v2.05/bin/bin/../../lib/gcc/pic32mx/4.8.3/../../../../pic32mx/lib\libpic32.a(vector6.o)
 .text          0x00000000        0x0 c:/program files (x86)/microchip/xc32/v2.05/bin/bin/../../lib/gcc/pic32mx/4.8.3/../../../../pic32mx/lib\libpic32.a(vector7.o)
 .data          0x00000000        0x0 c:/program files (x86)/microchip/xc32/v2.05/bin/bin/../../lib/gcc/pic32mx/4.8.3/../../../../pic32mx/lib\libpic32.a(vector7.o)
 .bss           0x00000000        0x0 c:/program files (x86)/microchip/xc32/v2.05/bin/bin/../../lib/gcc/pic32mx/4.8.3/../../../../pic32mx/lib\libpic32.a(vector7.o)
 .reginfo       0x00000000       0x18 c:/program files (x86)/microchip/xc32/v2.05/bin/bin/../../lib/gcc/pic32mx/4.8.3/../../../../pic32mx/lib\libpic32.a(vector7.o)
 .text          0x00000000        0x0 c:/program files (x86)/microchip/xc32/v2.05/bin/bin/../../lib/gcc/pic32mx/4.8.3/../../../../pic32mx/lib\libpic32.a(vector8.o)
 .data          0x00000000        0x0 c:/program files (x86)/microchip/xc32/v2.05/bin/bin/../../lib/gcc/pic32mx/4.8.3/../../../../pic32mx/lib\libpic32.a(vector8.o)
 .bss           0x00000000        0x0 c:/program files (x86)/microchip/xc32/v2.05/bin/bin/../../lib/gcc/pic32mx/4.8.3/../../../../pic32mx/lib\libpic32.a(vector8.o)
 .reginfo       0x00000000       0x18 c:/program files (x86)/microchip/xc32/v2.05/bin/bin/../../lib/gcc/pic32mx/4.8.3/../../../../pic32mx/lib\libpic32.a(vector8.o)
 .text          0x00000000        0x0 c:/program files (x86)/microchip/xc32/v2.05/bin/bin/../../lib/gcc/pic32mx/4.8.3/../../../../pic32mx/lib\libpic32.a(vector9.o)
 .data          0x00000000        0x0 c:/program files (x86)/microchip/xc32/v2.05/bin/bin/../../lib/gcc/pic32mx/4.8.3/../../../../pic32mx/lib\libpic32.a(vector9.o)
 .bss           0x00000000        0x0 c:/program files (x86)/microchip/xc32/v2.05/bin/bin/../../lib/gcc/pic32mx/4.8.3/../../../../pic32mx/lib\libpic32.a(vector9.o)
 .reginfo       0x00000000       0x18 c:/program files (x86)/microchip/xc32/v2.05/bin/bin/../../lib/gcc/pic32mx/4.8.3/../../../../pic32mx/lib\libpic32.a(vector9.o)
 .text          0x00000000        0x0 c:/program files (x86)/microchip/xc32/v2.05/bin/bin/../../lib/gcc/pic32mx/4.8.3/../../../../pic32mx/lib\libpic32.a(vector10.o)
 .data          0x00000000        0x0 c:/program files (x86)/microchip/xc32/v2.05/bin/bin/../../lib/gcc/pic32mx/4.8.3/../../../../pic32mx/lib\libpic32.a(vector10.o)
 .bss           0x00000000        0x0 c:/program files (x86)/microchip/xc32/v2.05/bin/bin/../../lib/gcc/pic32mx/4.8.3/../../../../pic32mx/lib\libpic32.a(vector10.o)
 .reginfo       0x00000000       0x18 c:/program files (x86)/microchip/xc32/v2.05/bin/bin/../../lib/gcc/pic32mx/4.8.3/../../../../pic32mx/lib\libpic32.a(vector10.o)
 .text          0x00000000        0x0 c:/program files (x86)/microchip/xc32/v2.05/bin/bin/../../lib/gcc/pic32mx/4.8.3/../../../../pic32mx/lib\libpic32.a(vector11.o)
 .data          0x00000000        0x0 c:/program files (x86)/microchip/xc32/v2.05/bin/bin/../../lib/gcc/pic32mx/4.8.3/../../../../pic32mx/lib\libpic32.a(vector11.o)
 .bss           0x00000000        0x0 c:/program files (x86)/microchip/xc32/v2.05/bin/bin/../../lib/gcc/pic32mx/4.8.3/../../../../pic32mx/lib\libpic32.a(vector11.o)
 .reginfo       0x00000000       0x18 c:/program files (x86)/microchip/xc32/v2.05/bin/bin/../../lib/gcc/pic32mx/4.8.3/../../../../pic32mx/lib\libpic32.a(vector11.o)
 .text          0x00000000        0x0 c:/program files (x86)/microchip/xc32/v2.05/bin/bin/../../lib/gcc/pic32mx/4.8.3/../../../../pic32mx/lib\libpic32.a(vector12.o)
 .data          0x00000000        0x0 c:/program files (x86)/microchip/xc32/v2.05/bin/bin/../../lib/gcc/pic32mx/4.8.3/../../../../pic32mx/lib\libpic32.a(vector12.o)
 .bss           0x00000000        0x0 c:/program files (x86)/microchip/xc32/v2.05/bin/bin/../../lib/gcc/pic32mx/4.8.3/../../../../pic32mx/lib\libpic32.a(vector12.o)
 .reginfo       0x00000000       0x18 c:/program files (x86)/microchip/xc32/v2.05/bin/bin/../../lib/gcc/pic32mx/4.8.3/../../../../pic32mx/lib\libpic32.a(vector12.o)
 .text          0x00000000        0x0 c:/program files (x86)/microchip/xc32/v2.05/bin/bin/../../lib/gcc/pic32mx/4.8.3/../../../../pic32mx/lib\libpic32.a(vector13.o)
 .data          0x00000000        0x0 c:/program files (x86)/microchip/xc32/v2.05/bin/bin/../../lib/gcc/pic32mx/4.8.3/../../../../pic32mx/lib\libpic32.a(vector13.o)
 .bss           0x00000000        0x0 c:/program files (x86)/microchip/xc32/v2.05/bin/bin/../../lib/gcc/pic32mx/4.8.3/../../../../pic32mx/lib\libpic32.a(vector13.o)
 .reginfo       0x00000000       0x18 c:/program files (x86)/microchip/xc32/v2.05/bin/bin/../../lib/gcc/pic32mx/4.8.3/../../../../pic32mx/lib\libpic32.a(vector13.o)
 .text          0x00000000        0x0 c:/program files (x86)/microchip/xc32/v2.05/bin/bin/../../lib/gcc/pic32mx/4.8.3/../../../../pic32mx/lib\libpic32.a(vector14.o)
 .data          0x00000000        0x0 c:/program files (x86)/microchip/xc32/v2.05/bin/bin/../../lib/gcc/pic32mx/4.8.3/../../../../pic32mx/lib\libpic32.a(vector14.o)
 .bss           0x00000000        0x0 c:/program files (x86)/microchip/xc32/v2.05/bin/bin/../../lib/gcc/pic32mx/4.8.3/../../../../pic32mx/lib\libpic32.a(vector14.o)
 .reginfo       0x00000000       0x18 c:/program files (x86)/microchip/xc32/v2.05/bin/bin/../../lib/gcc/pic32mx/4.8.3/../../../../pic32mx/lib\libpic32.a(vector14.o)
 .text          0x00000000        0x0 c:/program files (x86)/microchip/xc32/v2.05/bin/bin/../../lib/gcc/pic32mx/4.8.3/../../../../pic32mx/lib\libpic32.a(vector15.o)
 .data          0x00000000        0x0 c:/program files (x86)/microchip/xc32/v2.05/bin/bin/../../lib/gcc/pic32mx/4.8.3/../../../../pic32mx/lib\libpic32.a(vector15.o)
 .bss           0x00000000        0x0 c:/program files (x86)/microchip/xc32/v2.05/bin/bin/../../lib/gcc/pic32mx/4.8.3/../../../../pic32mx/lib\libpic32.a(vector15.o)
 .reginfo       0x00000000       0x18 c:/program files (x86)/microchip/xc32/v2.05/bin/bin/../../lib/gcc/pic32mx/4.8.3/../../../../pic32mx/lib\libpic32.a(vector15.o)
 .text          0x00000000        0x0 c:/program files (x86)/microchip/xc32/v2.05/bin/bin/../../lib/gcc/pic32mx/4.8.3/../../../../pic32mx/lib\libpic32.a(vector16.o)
 .data          0x00000000        0x0 c:/program files (x86)/microchip/xc32/v2.05/bin/bin/../../lib/gcc/pic32mx/4.8.3/../../../../pic32mx/lib\libpic32.a(vector16.o)
 .bss           0x00000000        0x0 c:/program files (x86)/microchip/xc32/v2.05/bin/bin/../../lib/gcc/pic32mx/4.8.3/../../../../pic32mx/lib\libpic32.a(vector16.o)
 .reginfo       0x00000000       0x18 c:/program files (x86)/microchip/xc32/v2.05/bin/bin/../../lib/gcc/pic32mx/4.8.3/../../../../pic32mx/lib\libpic32.a(vector16.o)
 .text          0x00000000        0x0 c:/program files (x86)/microchip/xc32/v2.05/bin/bin/../../lib/gcc/pic32mx/4.8.3/../../../../pic32mx/lib\libpic32.a(vector17.o)
 .data          0x00000000        0x0 c:/program files (x86)/microchip/xc32/v2.05/bin/bin/../../lib/gcc/pic32mx/4.8.3/../../../../pic32mx/lib\libpic32.a(vector17.o)
 .bss           0x00000000        0x0 c:/program files (x86)/microchip/xc32/v2.05/bin/bin/../../lib/gcc/pic32mx/4.8.3/../../../../pic32mx/lib\libpic32.a(vector17.o)
 .reginfo       0x00000000       0x18 c:/program files (x86)/microchip/xc32/v2.05/bin/bin/../../lib/gcc/pic32mx/4.8.3/../../../../pic32mx/lib\libpic32.a(vector17.o)
 .text          0x00000000        0x0 c:/program files (x86)/microchip/xc32/v2.05/bin/bin/../../lib/gcc/pic32mx/4.8.3/../../../../pic32mx/lib\libpic32.a(vector18.o)
 .data          0x00000000        0x0 c:/program files (x86)/microchip/xc32/v2.05/bin/bin/../../lib/gcc/pic32mx/4.8.3/../../../../pic32mx/lib\libpic32.a(vector18.o)
 .bss           0x00000000        0x0 c:/program files (x86)/microchip/xc32/v2.05/bin/bin/../../lib/gcc/pic32mx/4.8.3/../../../../pic32mx/lib\libpic32.a(vector18.o)
 .reginfo       0x00000000       0x18 c:/program files (x86)/microchip/xc32/v2.05/bin/bin/../../lib/gcc/pic32mx/4.8.3/../../../../pic32mx/lib\libpic32.a(vector18.o)
 .text          0x00000000        0x0 c:/program files (x86)/microchip/xc32/v2.05/bin/bin/../../lib/gcc/pic32mx/4.8.3/../../../../pic32mx/lib\libpic32.a(vector19.o)
 .data          0x00000000        0x0 c:/program files (x86)/microchip/xc32/v2.05/bin/bin/../../lib/gcc/pic32mx/4.8.3/../../../../pic32mx/lib\libpic32.a(vector19.o)
 .bss           0x00000000        0x0 c:/program files (x86)/microchip/xc32/v2.05/bin/bin/../../lib/gcc/pic32mx/4.8.3/../../../../pic32mx/lib\libpic32.a(vector19.o)
 .reginfo       0x00000000       0x18 c:/program files (x86)/microchip/xc32/v2.05/bin/bin/../../lib/gcc/pic32mx/4.8.3/../../../../pic32mx/lib\libpic32.a(vector19.o)
 .text          0x00000000        0x0 c:/program files (x86)/microchip/xc32/v2.05/bin/bin/../../lib/gcc/pic32mx/4.8.3/../../../../pic32mx/lib\libpic32.a(vector20.o)
 .data          0x00000000        0x0 c:/program files (x86)/microchip/xc32/v2.05/bin/bin/../../lib/gcc/pic32mx/4.8.3/../../../../pic32mx/lib\libpic32.a(vector20.o)
 .bss           0x00000000        0x0 c:/program files (x86)/microchip/xc32/v2.05/bin/bin/../../lib/gcc/pic32mx/4.8.3/../../../../pic32mx/lib\libpic32.a(vector20.o)
 .reginfo       0x00000000       0x18 c:/program files (x86)/microchip/xc32/v2.05/bin/bin/../../lib/gcc/pic32mx/4.8.3/../../../../pic32mx/lib\libpic32.a(vector20.o)
 .text          0x00000000        0x0 c:/program files (x86)/microchip/xc32/v2.05/bin/bin/../../lib/gcc/pic32mx/4.8.3/../../../../pic32mx/lib\libpic32.a(vector21.o)
 .data          0x00000000        0x0 c:/program files (x86)/microchip/xc32/v2.05/bin/bin/../../lib/gcc/pic32mx/4.8.3/../../../../pic32mx/lib\libpic32.a(vector21.o)
 .bss           0x00000000        0x0 c:/program files (x86)/microchip/xc32/v2.05/bin/bin/../../lib/gcc/pic32mx/4.8.3/../../../../pic32mx/lib\libpic32.a(vector21.o)
 .reginfo       0x00000000       0x18 c:/program files (x86)/microchip/xc32/v2.05/bin/bin/../../lib/gcc/pic32mx/4.8.3/../../../../pic32mx/lib\libpic32.a(vector21.o)
 .text          0x00000000        0x0 c:/program files (x86)/microchip/xc32/v2.05/bin/bin/../../lib/gcc/pic32mx/4.8.3/../../../../pic32mx/lib\libpic32.a(vector22.o)
 .data          0x00000000        0x0 c:/program files (x86)/microchip/xc32/v2.05/bin/bin/../../lib/gcc/pic32mx/4.8.3/../../../../pic32mx/lib\libpic32.a(vector22.o)
 .bss           0x00000000        0x0 c:/program files (x86)/microchip/xc32/v2.05/bin/bin/../../lib/gcc/pic32mx/4.8.3/../../../../pic32mx/lib\libpic32.a(vector22.o)
 .reginfo       0x00000000       0x18 c:/program files (x86)/microchip/xc32/v2.05/bin/bin/../../lib/gcc/pic32mx/4.8.3/../../../../pic32mx/lib\libpic32.a(vector22.o)
 .text          0x00000000        0x0 c:/program files (x86)/microchip/xc32/v2.05/bin/bin/../../lib/gcc/pic32mx/4.8.3/../../../../pic32mx/lib\libpic32.a(vector23.o)
 .data          0x00000000        0x0 c:/program files (x86)/microchip/xc32/v2.05/bin/bin/../../lib/gcc/pic32mx/4.8.3/../../../../pic32mx/lib\libpic32.a(vector23.o)
 .bss           0x00000000        0x0 c:/program files (x86)/microchip/xc32/v2.05/bin/bin/../../lib/gcc/pic32mx/4.8.3/../../../../pic32mx/lib\libpic32.a(vector23.o)
 .reginfo       0x00000000       0x18 c:/program files (x86)/microchip/xc32/v2.05/bin/bin/../../lib/gcc/pic32mx/4.8.3/../../../../pic32mx/lib\libpic32.a(vector23.o)
 .text          0x00000000        0x0 c:/program files (x86)/microchip/xc32/v2.05/bin/bin/../../lib/gcc/pic32mx/4.8.3/../../../../pic32mx/lib\libpic32.a(vector24.o)
 .data          0x00000000        0x0 c:/program files (x86)/microchip/xc32/v2.05/bin/bin/../../lib/gcc/pic32mx/4.8.3/../../../../pic32mx/lib\libpic32.a(vector24.o)
 .bss           0x00000000        0x0 c:/program files (x86)/microchip/xc32/v2.05/bin/bin/../../lib/gcc/pic32mx/4.8.3/../../../../pic32mx/lib\libpic32.a(vector24.o)
 .reginfo       0x00000000       0x18 c:/program files (x86)/microchip/xc32/v2.05/bin/bin/../../lib/gcc/pic32mx/4.8.3/../../../../pic32mx/lib\libpic32.a(vector24.o)
 .text          0x00000000        0x0 c:/program files (x86)/microchip/xc32/v2.05/bin/bin/../../lib/gcc/pic32mx/4.8.3/../../../../pic32mx/lib\libpic32.a(vector25.o)
 .data          0x00000000        0x0 c:/program files (x86)/microchip/xc32/v2.05/bin/bin/../../lib/gcc/pic32mx/4.8.3/../../../../pic32mx/lib\libpic32.a(vector25.o)
 .bss           0x00000000        0x0 c:/program files (x86)/microchip/xc32/v2.05/bin/bin/../../lib/gcc/pic32mx/4.8.3/../../../../pic32mx/lib\libpic32.a(vector25.o)
 .reginfo       0x00000000       0x18 c:/program files (x86)/microchip/xc32/v2.05/bin/bin/../../lib/gcc/pic32mx/4.8.3/../../../../pic32mx/lib\libpic32.a(vector25.o)
 .text          0x00000000        0x0 c:/program files (x86)/microchip/xc32/v2.05/bin/bin/../../lib/gcc/pic32mx/4.8.3/../../../../pic32mx/lib\libpic32.a(vector26.o)
 .data          0x00000000        0x0 c:/program files (x86)/microchip/xc32/v2.05/bin/bin/../../lib/gcc/pic32mx/4.8.3/../../../../pic32mx/lib\libpic32.a(vector26.o)
 .bss           0x00000000        0x0 c:/program files (x86)/microchip/xc32/v2.05/bin/bin/../../lib/gcc/pic32mx/4.8.3/../../../../pic32mx/lib\libpic32.a(vector26.o)
 .reginfo       0x00000000       0x18 c:/program files (x86)/microchip/xc32/v2.05/bin/bin/../../lib/gcc/pic32mx/4.8.3/../../../../pic32mx/lib\libpic32.a(vector26.o)
 .text          0x00000000        0x0 c:/program files (x86)/microchip/xc32/v2.05/bin/bin/../../lib/gcc/pic32mx/4.8.3/../../../../pic32mx/lib\libpic32.a(vector27.o)
 .data          0x00000000        0x0 c:/program files (x86)/microchip/xc32/v2.05/bin/bin/../../lib/gcc/pic32mx/4.8.3/../../../../pic32mx/lib\libpic32.a(vector27.o)
 .bss           0x00000000        0x0 c:/program files (x86)/microchip/xc32/v2.05/bin/bin/../../lib/gcc/pic32mx/4.8.3/../../../../pic32mx/lib\libpic32.a(vector27.o)
 .reginfo       0x00000000       0x18 c:/program files (x86)/microchip/xc32/v2.05/bin/bin/../../lib/gcc/pic32mx/4.8.3/../../../../pic32mx/lib\libpic32.a(vector27.o)
 .text          0x00000000        0x0 c:/program files (x86)/microchip/xc32/v2.05/bin/bin/../../lib/gcc/pic32mx/4.8.3/../../../../pic32mx/lib\libpic32.a(vector28.o)
 .data          0x00000000        0x0 c:/program files (x86)/microchip/xc32/v2.05/bin/bin/../../lib/gcc/pic32mx/4.8.3/../../../../pic32mx/lib\libpic32.a(vector28.o)
 .bss           0x00000000        0x0 c:/program files (x86)/microchip/xc32/v2.05/bin/bin/../../lib/gcc/pic32mx/4.8.3/../../../../pic32mx/lib\libpic32.a(vector28.o)
 .reginfo       0x00000000       0x18 c:/program files (x86)/microchip/xc32/v2.05/bin/bin/../../lib/gcc/pic32mx/4.8.3/../../../../pic32mx/lib\libpic32.a(vector28.o)
 .text          0x00000000        0x0 c:/program files (x86)/microchip/xc32/v2.05/bin/bin/../../lib/gcc/pic32mx/4.8.3/../../../../pic32mx/lib\libpic32.a(vector29.o)
 .data          0x00000000        0x0 c:/program files (x86)/microchip/xc32/v2.05/bin/bin/../../lib/gcc/pic32mx/4.8.3/../../../../pic32mx/lib\libpic32.a(vector29.o)
 .bss           0x00000000        0x0 c:/program files (x86)/microchip/xc32/v2.05/bin/bin/../../lib/gcc/pic32mx/4.8.3/../../../../pic32mx/lib\libpic32.a(vector29.o)
 .reginfo       0x00000000       0x18 c:/program files (x86)/microchip/xc32/v2.05/bin/bin/../../lib/gcc/pic32mx/4.8.3/../../../../pic32mx/lib\libpic32.a(vector29.o)
 .text          0x00000000        0x0 c:/program files (x86)/microchip/xc32/v2.05/bin/bin/../../lib/gcc/pic32mx/4.8.3/../../../../pic32mx/lib\libpic32.a(vector30.o)
 .data          0x00000000        0x0 c:/program files (x86)/microchip/xc32/v2.05/bin/bin/../../lib/gcc/pic32mx/4.8.3/../../../../pic32mx/lib\libpic32.a(vector30.o)
 .bss           0x00000000        0x0 c:/program files (x86)/microchip/xc32/v2.05/bin/bin/../../lib/gcc/pic32mx/4.8.3/../../../../pic32mx/lib\libpic32.a(vector30.o)
 .reginfo       0x00000000       0x18 c:/program files (x86)/microchip/xc32/v2.05/bin/bin/../../lib/gcc/pic32mx/4.8.3/../../../../pic32mx/lib\libpic32.a(vector30.o)
 .text          0x00000000        0x0 c:/program files (x86)/microchip/xc32/v2.05/bin/bin/../../lib/gcc/pic32mx/4.8.3/../../../../pic32mx/lib\libpic32.a(vector31.o)
 .data          0x00000000        0x0 c:/program files (x86)/microchip/xc32/v2.05/bin/bin/../../lib/gcc/pic32mx/4.8.3/../../../../pic32mx/lib\libpic32.a(vector31.o)
 .bss           0x00000000        0x0 c:/program files (x86)/microchip/xc32/v2.05/bin/bin/../../lib/gcc/pic32mx/4.8.3/../../../../pic32mx/lib\libpic32.a(vector31.o)
 .reginfo       0x00000000       0x18 c:/program files (x86)/microchip/xc32/v2.05/bin/bin/../../lib/gcc/pic32mx/4.8.3/../../../../pic32mx/lib\libpic32.a(vector31.o)
 .text          0x00000000        0x0 c:/program files (x86)/microchip/xc32/v2.05/bin/bin/../../lib/gcc/pic32mx/4.8.3/../../../../pic32mx/lib\libpic32.a(vector32.o)
 .data          0x00000000        0x0 c:/program files (x86)/microchip/xc32/v2.05/bin/bin/../../lib/gcc/pic32mx/4.8.3/../../../../pic32mx/lib\libpic32.a(vector32.o)
 .bss           0x00000000        0x0 c:/program files (x86)/microchip/xc32/v2.05/bin/bin/../../lib/gcc/pic32mx/4.8.3/../../../../pic32mx/lib\libpic32.a(vector32.o)
 .reginfo       0x00000000       0x18 c:/program files (x86)/microchip/xc32/v2.05/bin/bin/../../lib/gcc/pic32mx/4.8.3/../../../../pic32mx/lib\libpic32.a(vector32.o)
 .text          0x00000000        0x0 c:/program files (x86)/microchip/xc32/v2.05/bin/bin/../../lib/gcc/pic32mx/4.8.3/../../../../pic32mx/lib\libpic32.a(vector33.o)
 .data          0x00000000        0x0 c:/program files (x86)/microchip/xc32/v2.05/bin/bin/../../lib/gcc/pic32mx/4.8.3/../../../../pic32mx/lib\libpic32.a(vector33.o)
 .bss           0x00000000        0x0 c:/program files (x86)/microchip/xc32/v2.05/bin/bin/../../lib/gcc/pic32mx/4.8.3/../../../../pic32mx/lib\libpic32.a(vector33.o)
 .reginfo       0x00000000       0x18 c:/program files (x86)/microchip/xc32/v2.05/bin/bin/../../lib/gcc/pic32mx/4.8.3/../../../../pic32mx/lib\libpic32.a(vector33.o)
 .text          0x00000000        0x0 c:/program files (x86)/microchip/xc32/v2.05/bin/bin/../../lib/gcc/pic32mx/4.8.3/../../../../pic32mx/lib\libpic32.a(vector34.o)
 .data          0x00000000        0x0 c:/program files (x86)/microchip/xc32/v2.05/bin/bin/../../lib/gcc/pic32mx/4.8.3/../../../../pic32mx/lib\libpic32.a(vector34.o)
 .bss           0x00000000        0x0 c:/program files (x86)/microchip/xc32/v2.05/bin/bin/../../lib/gcc/pic32mx/4.8.3/../../../../pic32mx/lib\libpic32.a(vector34.o)
 .reginfo       0x00000000       0x18 c:/program files (x86)/microchip/xc32/v2.05/bin/bin/../../lib/gcc/pic32mx/4.8.3/../../../../pic32mx/lib\libpic32.a(vector34.o)
 .text          0x00000000        0x0 c:/program files (x86)/microchip/xc32/v2.05/bin/bin/../../lib/gcc/pic32mx/4.8.3/../../../../pic32mx/lib\libpic32.a(vector35.o)
 .data          0x00000000        0x0 c:/program files (x86)/microchip/xc32/v2.05/bin/bin/../../lib/gcc/pic32mx/4.8.3/../../../../pic32mx/lib\libpic32.a(vector35.o)
 .bss           0x00000000        0x0 c:/program files (x86)/microchip/xc32/v2.05/bin/bin/../../lib/gcc/pic32mx/4.8.3/../../../../pic32mx/lib\libpic32.a(vector35.o)
 .reginfo       0x00000000       0x18 c:/program files (x86)/microchip/xc32/v2.05/bin/bin/../../lib/gcc/pic32mx/4.8.3/../../../../pic32mx/lib\libpic32.a(vector35.o)
 .text          0x00000000        0x0 c:/program files (x86)/microchip/xc32/v2.05/bin/bin/../../lib/gcc/pic32mx/4.8.3/../../../../pic32mx/lib\libpic32.a(vector36.o)
 .data          0x00000000        0x0 c:/program files (x86)/microchip/xc32/v2.05/bin/bin/../../lib/gcc/pic32mx/4.8.3/../../../../pic32mx/lib\libpic32.a(vector36.o)
 .bss           0x00000000        0x0 c:/program files (x86)/microchip/xc32/v2.05/bin/bin/../../lib/gcc/pic32mx/4.8.3/../../../../pic32mx/lib\libpic32.a(vector36.o)
 .reginfo       0x00000000       0x18 c:/program files (x86)/microchip/xc32/v2.05/bin/bin/../../lib/gcc/pic32mx/4.8.3/../../../../pic32mx/lib\libpic32.a(vector36.o)
 .text          0x00000000        0x0 c:/program files (x86)/microchip/xc32/v2.05/bin/bin/../../lib/gcc/pic32mx/4.8.3/../../../../pic32mx/lib\libpic32.a(vector37.o)
 .data          0x00000000        0x0 c:/program files (x86)/microchip/xc32/v2.05/bin/bin/../../lib/gcc/pic32mx/4.8.3/../../../../pic32mx/lib\libpic32.a(vector37.o)
 .bss           0x00000000        0x0 c:/program files (x86)/microchip/xc32/v2.05/bin/bin/../../lib/gcc/pic32mx/4.8.3/../../../../pic32mx/lib\libpic32.a(vector37.o)
 .reginfo       0x00000000       0x18 c:/program files (x86)/microchip/xc32/v2.05/bin/bin/../../lib/gcc/pic32mx/4.8.3/../../../../pic32mx/lib\libpic32.a(vector37.o)
 .text          0x00000000        0x0 c:/program files (x86)/microchip/xc32/v2.05/bin/bin/../../lib/gcc/pic32mx/4.8.3/../../../../pic32mx/lib\libpic32.a(vector38.o)
 .data          0x00000000        0x0 c:/program files (x86)/microchip/xc32/v2.05/bin/bin/../../lib/gcc/pic32mx/4.8.3/../../../../pic32mx/lib\libpic32.a(vector38.o)
 .bss           0x00000000        0x0 c:/program files (x86)/microchip/xc32/v2.05/bin/bin/../../lib/gcc/pic32mx/4.8.3/../../../../pic32mx/lib\libpic32.a(vector38.o)
 .reginfo       0x00000000       0x18 c:/program files (x86)/microchip/xc32/v2.05/bin/bin/../../lib/gcc/pic32mx/4.8.3/../../../../pic32mx/lib\libpic32.a(vector38.o)
 .text          0x00000000        0x0 c:/program files (x86)/microchip/xc32/v2.05/bin/bin/../../lib/gcc/pic32mx/4.8.3/../../../../pic32mx/lib\libpic32.a(vector39.o)
 .data          0x00000000        0x0 c:/program files (x86)/microchip/xc32/v2.05/bin/bin/../../lib/gcc/pic32mx/4.8.3/../../../../pic32mx/lib\libpic32.a(vector39.o)
 .bss           0x00000000        0x0 c:/program files (x86)/microchip/xc32/v2.05/bin/bin/../../lib/gcc/pic32mx/4.8.3/../../../../pic32mx/lib\libpic32.a(vector39.o)
 .reginfo       0x00000000       0x18 c:/program files (x86)/microchip/xc32/v2.05/bin/bin/../../lib/gcc/pic32mx/4.8.3/../../../../pic32mx/lib\libpic32.a(vector39.o)
 .text          0x00000000        0x0 c:/program files (x86)/microchip/xc32/v2.05/bin/bin/../../lib/gcc/pic32mx/4.8.3/../../../../pic32mx/lib\libpic32.a(vector40.o)
 .data          0x00000000        0x0 c:/program files (x86)/microchip/xc32/v2.05/bin/bin/../../lib/gcc/pic32mx/4.8.3/../../../../pic32mx/lib\libpic32.a(vector40.o)
 .bss           0x00000000        0x0 c:/program files (x86)/microchip/xc32/v2.05/bin/bin/../../lib/gcc/pic32mx/4.8.3/../../../../pic32mx/lib\libpic32.a(vector40.o)
 .reginfo       0x00000000       0x18 c:/program files (x86)/microchip/xc32/v2.05/bin/bin/../../lib/gcc/pic32mx/4.8.3/../../../../pic32mx/lib\libpic32.a(vector40.o)
 .text          0x00000000        0x0 c:/program files (x86)/microchip/xc32/v2.05/bin/bin/../../lib/gcc/pic32mx/4.8.3/../../../../pic32mx/lib\libpic32.a(vector41.o)
 .data          0x00000000        0x0 c:/program files (x86)/microchip/xc32/v2.05/bin/bin/../../lib/gcc/pic32mx/4.8.3/../../../../pic32mx/lib\libpic32.a(vector41.o)
 .bss           0x00000000        0x0 c:/program files (x86)/microchip/xc32/v2.05/bin/bin/../../lib/gcc/pic32mx/4.8.3/../../../../pic32mx/lib\libpic32.a(vector41.o)
 .reginfo       0x00000000       0x18 c:/program files (x86)/microchip/xc32/v2.05/bin/bin/../../lib/gcc/pic32mx/4.8.3/../../../../pic32mx/lib\libpic32.a(vector41.o)
 .text          0x00000000        0x0 c:/program files (x86)/microchip/xc32/v2.05/bin/bin/../../lib/gcc/pic32mx/4.8.3/../../../../pic32mx/lib\libpic32.a(vector42.o)
 .data          0x00000000        0x0 c:/program files (x86)/microchip/xc32/v2.05/bin/bin/../../lib/gcc/pic32mx/4.8.3/../../../../pic32mx/lib\libpic32.a(vector42.o)
 .bss           0x00000000        0x0 c:/program files (x86)/microchip/xc32/v2.05/bin/bin/../../lib/gcc/pic32mx/4.8.3/../../../../pic32mx/lib\libpic32.a(vector42.o)
 .reginfo       0x00000000       0x18 c:/program files (x86)/microchip/xc32/v2.05/bin/bin/../../lib/gcc/pic32mx/4.8.3/../../../../pic32mx/lib\libpic32.a(vector42.o)
 .text          0x00000000        0x0 c:/program files (x86)/microchip/xc32/v2.05/bin/bin/../../lib/gcc/pic32mx/4.8.3/../../../../pic32mx/lib\libpic32.a(vector43.o)
 .data          0x00000000        0x0 c:/program files (x86)/microchip/xc32/v2.05/bin/bin/../../lib/gcc/pic32mx/4.8.3/../../../../pic32mx/lib\libpic32.a(vector43.o)
 .bss           0x00000000        0x0 c:/program files (x86)/microchip/xc32/v2.05/bin/bin/../../lib/gcc/pic32mx/4.8.3/../../../../pic32mx/lib\libpic32.a(vector43.o)
 .reginfo       0x00000000       0x18 c:/program files (x86)/microchip/xc32/v2.05/bin/bin/../../lib/gcc/pic32mx/4.8.3/../../../../pic32mx/lib\libpic32.a(vector43.o)
 .text          0x00000000        0x0 c:/program files (x86)/microchip/xc32/v2.05/bin/bin/../../lib/gcc/pic32mx/4.8.3/../../../../pic32mx/lib\libpic32.a(vector44.o)
 .data          0x00000000        0x0 c:/program files (x86)/microchip/xc32/v2.05/bin/bin/../../lib/gcc/pic32mx/4.8.3/../../../../pic32mx/lib\libpic32.a(vector44.o)
 .bss           0x00000000        0x0 c:/program files (x86)/microchip/xc32/v2.05/bin/bin/../../lib/gcc/pic32mx/4.8.3/../../../../pic32mx/lib\libpic32.a(vector44.o)
 .reginfo       0x00000000       0x18 c:/program files (x86)/microchip/xc32/v2.05/bin/bin/../../lib/gcc/pic32mx/4.8.3/../../../../pic32mx/lib\libpic32.a(vector44.o)
 .text          0x00000000        0x0 c:/program files (x86)/microchip/xc32/v2.05/bin/bin/../../lib/gcc/pic32mx/4.8.3/../../../../pic32mx/lib\libpic32.a(defaultinterrupt.o)
 .data          0x00000000        0x0 c:/program files (x86)/microchip/xc32/v2.05/bin/bin/../../lib/gcc/pic32mx/4.8.3/../../../../pic32mx/lib\libpic32.a(defaultinterrupt.o)
 .bss           0x00000000        0x0 c:/program files (x86)/microchip/xc32/v2.05/bin/bin/../../lib/gcc/pic32mx/4.8.3/../../../../pic32mx/lib\libpic32.a(defaultinterrupt.o)
 .reginfo       0x00000000       0x18 c:/program files (x86)/microchip/xc32/v2.05/bin/bin/../../lib/gcc/pic32mx/4.8.3/../../../../pic32mx/lib\libpic32.a(defaultinterrupt.o)
 .text          0x00000000        0x0 c:/program files (x86)/microchip/xc32/v2.05/bin/bin/../../lib/gcc/pic32mx/4.8.3/../../../../pic32mx/lib\libc.a(atoi.o)
 .data          0x00000000        0x0 c:/program files (x86)/microchip/xc32/v2.05/bin/bin/../../lib/gcc/pic32mx/4.8.3/../../../../pic32mx/lib\libc.a(atoi.o)
 .bss           0x00000000        0x0 c:/program files (x86)/microchip/xc32/v2.05/bin/bin/../../lib/gcc/pic32mx/4.8.3/../../../../pic32mx/lib\libc.a(atoi.o)
 .reginfo       0x00000000       0x18 c:/program files (x86)/microchip/xc32/v2.05/bin/bin/../../lib/gcc/pic32mx/4.8.3/../../../../pic32mx/lib\libc.a(atoi.o)
 .text          0x00000000        0x0 c:/program files (x86)/microchip/xc32/v2.05/bin/bin/../../lib/gcc/pic32mx/4.8.3/../../../../pic32mx/lib\libc.a(ctype.o)
 .data          0x00000000        0x0 c:/program files (x86)/microchip/xc32/v2.05/bin/bin/../../lib/gcc/pic32mx/4.8.3/../../../../pic32mx/lib\libc.a(ctype.o)
 .bss           0x00000000        0x0 c:/program files (x86)/microchip/xc32/v2.05/bin/bin/../../lib/gcc/pic32mx/4.8.3/../../../../pic32mx/lib\libc.a(ctype.o)
 .reginfo       0x00000000       0x18 c:/program files (x86)/microchip/xc32/v2.05/bin/bin/../../lib/gcc/pic32mx/4.8.3/../../../../pic32mx/lib\libc.a(ctype.o)
 .text          0x00000000        0x0 c:/program files (x86)/microchip/xc32/v2.05/bin/bin/../../lib/gcc/pic32mx/4.8.3/../../../../pic32mx/lib\libc.a(ctypef.o)
 .data          0x00000000        0x0 c:/program files (x86)/microchip/xc32/v2.05/bin/bin/../../lib/gcc/pic32mx/4.8.3/../../../../pic32mx/lib\libc.a(ctypef.o)
 .bss           0x00000000        0x0 c:/program files (x86)/microchip/xc32/v2.05/bin/bin/../../lib/gcc/pic32mx/4.8.3/../../../../pic32mx/lib\libc.a(ctypef.o)
 .reginfo       0x00000000       0x18 c:/program files (x86)/microchip/xc32/v2.05/bin/bin/../../lib/gcc/pic32mx/4.8.3/../../../../pic32mx/lib\libc.a(ctypef.o)
 .text.tolower  0x00000000       0x24 c:/program files (x86)/microchip/xc32/v2.05/bin/bin/../../lib/gcc/pic32mx/4.8.3/../../../../pic32mx/lib\libc.a(ctypef.o)
 .text.isalnum  0x00000000       0x18 c:/program files (x86)/microchip/xc32/v2.05/bin/bin/../../lib/gcc/pic32mx/4.8.3/../../../../pic32mx/lib\libc.a(ctypef.o)
 .text.isalpha  0x00000000       0x18 c:/program files (x86)/microchip/xc32/v2.05/bin/bin/../../lib/gcc/pic32mx/4.8.3/../../../../pic32mx/lib\libc.a(ctypef.o)
 .text.isascii  0x00000000        0x8 c:/program files (x86)/microchip/xc32/v2.05/bin/bin/../../lib/gcc/pic32mx/4.8.3/../../../../pic32mx/lib\libc.a(ctypef.o)
 .text.iscntrl  0x00000000       0x18 c:/program files (x86)/microchip/xc32/v2.05/bin/bin/../../lib/gcc/pic32mx/4.8.3/../../../../pic32mx/lib\libc.a(ctypef.o)
 .text.isdigit  0x00000000       0x18 c:/program files (x86)/microchip/xc32/v2.05/bin/bin/../../lib/gcc/pic32mx/4.8.3/../../../../pic32mx/lib\libc.a(ctypef.o)
 .text.isgraph  0x00000000       0x18 c:/program files (x86)/microchip/xc32/v2.05/bin/bin/../../lib/gcc/pic32mx/4.8.3/../../../../pic32mx/lib\libc.a(ctypef.o)
 .text.islower  0x00000000       0x18 c:/program files (x86)/microchip/xc32/v2.05/bin/bin/../../lib/gcc/pic32mx/4.8.3/../../../../pic32mx/lib\libc.a(ctypef.o)
 .text.isprint  0x00000000       0x18 c:/program files (x86)/microchip/xc32/v2.05/bin/bin/../../lib/gcc/pic32mx/4.8.3/../../../../pic32mx/lib\libc.a(ctypef.o)
 .text.ispunct  0x00000000       0x18 c:/program files (x86)/microchip/xc32/v2.05/bin/bin/../../lib/gcc/pic32mx/4.8.3/../../../../pic32mx/lib\libc.a(ctypef.o)
 .text.isspace  0x00000000       0x18 c:/program files (x86)/microchip/xc32/v2.05/bin/bin/../../lib/gcc/pic32mx/4.8.3/../../../../pic32mx/lib\libc.a(ctypef.o)
 .text.isupper  0x00000000       0x18 c:/program files (x86)/microchip/xc32/v2.05/bin/bin/../../lib/gcc/pic32mx/4.8.3/../../../../pic32mx/lib\libc.a(ctypef.o)
 .text.isxdigit
                0x00000000       0x18 c:/program files (x86)/microchip/xc32/v2.05/bin/bin/../../lib/gcc/pic32mx/4.8.3/../../../../pic32mx/lib\libc.a(ctypef.o)
 .text.toascii  0x00000000        0x8 c:/program files (x86)/microchip/xc32/v2.05/bin/bin/../../lib/gcc/pic32mx/4.8.3/../../../../pic32mx/lib\libc.a(ctypef.o)
 .text._tolower
                0x00000000        0x8 c:/program files (x86)/microchip/xc32/v2.05/bin/bin/../../lib/gcc/pic32mx/4.8.3/../../../../pic32mx/lib\libc.a(ctypef.o)
 .text._toupper
                0x00000000        0x8 c:/program files (x86)/microchip/xc32/v2.05/bin/bin/../../lib/gcc/pic32mx/4.8.3/../../../../pic32mx/lib\libc.a(ctypef.o)
 .text          0x00000000        0x0 c:/program files (x86)/microchip/xc32/v2.05/bin/bin/../../lib/gcc/pic32mx/4.8.3/../../../../pic32mx/lib\libc.a(atof.o)
 .data          0x00000000        0x0 c:/program files (x86)/microchip/xc32/v2.05/bin/bin/../../lib/gcc/pic32mx/4.8.3/../../../../pic32mx/lib\libc.a(atof.o)
 .bss           0x00000000        0x0 c:/program files (x86)/microchip/xc32/v2.05/bin/bin/../../lib/gcc/pic32mx/4.8.3/../../../../pic32mx/lib\libc.a(atof.o)
 .reginfo       0x00000000       0x18 c:/program files (x86)/microchip/xc32/v2.05/bin/bin/../../lib/gcc/pic32mx/4.8.3/../../../../pic32mx/lib\libc.a(atof.o)
 .text          0x00000000        0x0 c:/program files (x86)/microchip/xc32/v2.05/bin/bin/../../lib/gcc/pic32mx/4.8.3/../../../../pic32mx/lib\libc.a(sprintf_cdfFnopuxX.eo)
 .data          0x00000000        0x0 c:/program files (x86)/microchip/xc32/v2.05/bin/bin/../../lib/gcc/pic32mx/4.8.3/../../../../pic32mx/lib\libc.a(sprintf_cdfFnopuxX.eo)
 .bss           0x00000000        0x0 c:/program files (x86)/microchip/xc32/v2.05/bin/bin/../../lib/gcc/pic32mx/4.8.3/../../../../pic32mx/lib\libc.a(sprintf_cdfFnopuxX.eo)
 .reginfo       0x00000000       0x18 c:/program files (x86)/microchip/xc32/v2.05/bin/bin/../../lib/gcc/pic32mx/4.8.3/../../../../pic32mx/lib\libc.a(sprintf_cdfFnopuxX.eo)
 .text          0x00000000        0x0 c:/program files (x86)/microchip/xc32/v2.05/bin/bin/../../lib/gcc/pic32mx/4.8.3/../../../../pic32mx/lib\libc.a(strtof.o)
 .data          0x00000000        0x0 c:/program files (x86)/microchip/xc32/v2.05/bin/bin/../../lib/gcc/pic32mx/4.8.3/../../../../pic32mx/lib\libc.a(strtof.o)
 .bss           0x00000000        0x0 c:/program files (x86)/microchip/xc32/v2.05/bin/bin/../../lib/gcc/pic32mx/4.8.3/../../../../pic32mx/lib\libc.a(strtof.o)
 .reginfo       0x00000000       0x18 c:/program files (x86)/microchip/xc32/v2.05/bin/bin/../../lib/gcc/pic32mx/4.8.3/../../../../pic32mx/lib\libc.a(strtof.o)
 .text.strtodf  0x00000000       0x1c c:/program files (x86)/microchip/xc32/v2.05/bin/bin/../../lib/gcc/pic32mx/4.8.3/../../../../pic32mx/lib\libc.a(strtof.o)
 .text          0x00000000        0x0 c:/program files (x86)/microchip/xc32/v2.05/bin/bin/../../lib/gcc/pic32mx/4.8.3/../../../../pic32mx/lib\libc.a(doprnt_cdfFnopuxX.eo)
 .data          0x00000000        0x0 c:/program files (x86)/microchip/xc32/v2.05/bin/bin/../../lib/gcc/pic32mx/4.8.3/../../../../pic32mx/lib\libc.a(doprnt_cdfFnopuxX.eo)
 .bss           0x00000000        0x0 c:/program files (x86)/microchip/xc32/v2.05/bin/bin/../../lib/gcc/pic32mx/4.8.3/../../../../pic32mx/lib\libc.a(doprnt_cdfFnopuxX.eo)
 .reginfo       0x00000000       0x18 c:/program files (x86)/microchip/xc32/v2.05/bin/bin/../../lib/gcc/pic32mx/4.8.3/../../../../pic32mx/lib\libc.a(doprnt_cdfFnopuxX.eo)
 .text          0x00000000        0x0 c:/program files (x86)/microchip/xc32/v2.05/bin/bin/../../lib/gcc/pic32mx/4.8.3/../../../../pic32mx/lib\libc.a(_fputc_simple.o)
 .data          0x00000000        0x0 c:/program files (x86)/microchip/xc32/v2.05/bin/bin/../../lib/gcc/pic32mx/4.8.3/../../../../pic32mx/lib\libc.a(_fputc_simple.o)
 .bss           0x00000000        0x0 c:/program files (x86)/microchip/xc32/v2.05/bin/bin/../../lib/gcc/pic32mx/4.8.3/../../../../pic32mx/lib\libc.a(_fputc_simple.o)
 .reginfo       0x00000000       0x18 c:/program files (x86)/microchip/xc32/v2.05/bin/bin/../../lib/gcc/pic32mx/4.8.3/../../../../pic32mx/lib\libc.a(_fputc_simple.o)
 .text          0x00000000        0x0 c:/program files (x86)/microchip/xc32/v2.05/bin/bin/../../lib/gcc/pic32mx/4.8.3/../../../../pic32mx/lib\libc.a(ldpowers.o)
 .data          0x00000000        0x0 c:/program files (x86)/microchip/xc32/v2.05/bin/bin/../../lib/gcc/pic32mx/4.8.3/../../../../pic32mx/lib\libc.a(ldpowers.o)
 .bss           0x00000000        0x0 c:/program files (x86)/microchip/xc32/v2.05/bin/bin/../../lib/gcc/pic32mx/4.8.3/../../../../pic32mx/lib\libc.a(ldpowers.o)
 .reginfo       0x00000000       0x18 c:/program files (x86)/microchip/xc32/v2.05/bin/bin/../../lib/gcc/pic32mx/4.8.3/../../../../pic32mx/lib\libc.a(ldpowers.o)
 .text          0x00000000        0x0 c:/program files (x86)/microchip/xc32/v2.05/bin/bin/../../lib/gcc/pic32mx/4.8.3/../../../../pic32mx/lib\libc.a(_iob.o)
 .data          0x00000000       0xa4 c:/program files (x86)/microchip/xc32/v2.05/bin/bin/../../lib/gcc/pic32mx/4.8.3/../../../../pic32mx/lib\libc.a(_iob.o)
 .reginfo       0x00000000       0x18 c:/program files (x86)/microchip/xc32/v2.05/bin/bin/../../lib/gcc/pic32mx/4.8.3/../../../../pic32mx/lib\libc.a(_iob.o)
 .text          0x00000000        0x0 c:/program files (x86)/microchip/xc32/v2.05/bin/bin/../../lib/gcc/pic32mx/4.8.3/../../../../pic32mx/lib\libc.a(_flsbuf_simple.o)
 .data          0x00000000        0x0 c:/program files (x86)/microchip/xc32/v2.05/bin/bin/../../lib/gcc/pic32mx/4.8.3/../../../../pic32mx/lib\libc.a(_flsbuf_simple.o)
 .bss           0x00000000        0x0 c:/program files (x86)/microchip/xc32/v2.05/bin/bin/../../lib/gcc/pic32mx/4.8.3/../../../../pic32mx/lib\libc.a(_flsbuf_simple.o)
 .reginfo       0x00000000       0x18 c:/program files (x86)/microchip/xc32/v2.05/bin/bin/../../lib/gcc/pic32mx/4.8.3/../../../../pic32mx/lib\libc.a(_flsbuf_simple.o)
 .text          0x00000000        0x0 c:/program files (x86)/microchip/xc32/v2.05/bin/bin/../../lib/gcc/pic32mx/4.8.3/../../../../pic32mx/lib\libm.a(dpfrexp.o)
 .data          0x00000000        0x0 c:/program files (x86)/microchip/xc32/v2.05/bin/bin/../../lib/gcc/pic32mx/4.8.3/../../../../pic32mx/lib\libm.a(dpfrexp.o)
 .bss           0x00000000        0x0 c:/program files (x86)/microchip/xc32/v2.05/bin/bin/../../lib/gcc/pic32mx/4.8.3/../../../../pic32mx/lib\libm.a(dpfrexp.o)
 .reginfo       0x00000000       0x18 c:/program files (x86)/microchip/xc32/v2.05/bin/bin/../../lib/gcc/pic32mx/4.8.3/../../../../pic32mx/lib\libm.a(dpfrexp.o)
 .text          0x00000000        0x0 c:/program files (x86)/microchip/xc32/v2.05/bin/bin/../../lib/gcc/pic32mx/4.8.3/../../../../pic32mx/lib\libm.a(dp32div.o)
 .data          0x00000000        0x0 c:/program files (x86)/microchip/xc32/v2.05/bin/bin/../../lib/gcc/pic32mx/4.8.3/../../../../pic32mx/lib\libm.a(dp32div.o)
 .bss           0x00000000        0x0 c:/program files (x86)/microchip/xc32/v2.05/bin/bin/../../lib/gcc/pic32mx/4.8.3/../../../../pic32mx/lib\libm.a(dp32div.o)
 .reginfo       0x00000000       0x18 c:/program files (x86)/microchip/xc32/v2.05/bin/bin/../../lib/gcc/pic32mx/4.8.3/../../../../pic32mx/lib\libm.a(dp32div.o)
 .text          0x00000000        0x0 c:/program files (x86)/microchip/xc32/v2.05/bin/bin/../../lib/gcc/pic32mx/4.8.3/../../../../pic32mx/lib\libm.a(dp32mul.o)
 .data          0x00000000        0x0 c:/program files (x86)/microchip/xc32/v2.05/bin/bin/../../lib/gcc/pic32mx/4.8.3/../../../../pic32mx/lib\libm.a(dp32mul.o)
 .bss           0x00000000        0x0 c:/program files (x86)/microchip/xc32/v2.05/bin/bin/../../lib/gcc/pic32mx/4.8.3/../../../../pic32mx/lib\libm.a(dp32mul.o)
 .reginfo       0x00000000       0x18 c:/program files (x86)/microchip/xc32/v2.05/bin/bin/../../lib/gcc/pic32mx/4.8.3/../../../../pic32mx/lib\libm.a(dp32mul.o)
 .text          0x00000000        0x0 c:/program files (x86)/microchip/xc32/v2.05/bin/bin/../../lib/gcc/pic32mx/4.8.3/../../../../pic32mx/lib\libm.a(dp32subadd.o)
 .data          0x00000000        0x0 c:/program files (x86)/microchip/xc32/v2.05/bin/bin/../../lib/gcc/pic32mx/4.8.3/../../../../pic32mx/lib\libm.a(dp32subadd.o)
 .bss           0x00000000        0x0 c:/program files (x86)/microchip/xc32/v2.05/bin/bin/../../lib/gcc/pic32mx/4.8.3/../../../../pic32mx/lib\libm.a(dp32subadd.o)
 .reginfo       0x00000000       0x18 c:/program files (x86)/microchip/xc32/v2.05/bin/bin/../../lib/gcc/pic32mx/4.8.3/../../../../pic32mx/lib\libm.a(dp32subadd.o)
 .text          0x00000000        0x0 c:/program files (x86)/microchip/xc32/v2.05/bin/bin/../../lib/gcc/pic32mx/4.8.3/../../../../pic32mx/lib\libm.a(dpcmp.o)
 .data          0x00000000        0x0 c:/program files (x86)/microchip/xc32/v2.05/bin/bin/../../lib/gcc/pic32mx/4.8.3/../../../../pic32mx/lib\libm.a(dpcmp.o)
 .bss           0x00000000        0x0 c:/program files (x86)/microchip/xc32/v2.05/bin/bin/../../lib/gcc/pic32mx/4.8.3/../../../../pic32mx/lib\libm.a(dpcmp.o)
 .reginfo       0x00000000       0x18 c:/program files (x86)/microchip/xc32/v2.05/bin/bin/../../lib/gcc/pic32mx/4.8.3/../../../../pic32mx/lib\libm.a(dpcmp.o)
 .text          0x00000000        0x0 c:/program files (x86)/microchip/xc32/v2.05/bin/bin/../../lib/gcc/pic32mx/4.8.3/../../../../pic32mx/lib\libm.a(fp32subadd.o)
 .data          0x00000000        0x0 c:/program files (x86)/microchip/xc32/v2.05/bin/bin/../../lib/gcc/pic32mx/4.8.3/../../../../pic32mx/lib\libm.a(fp32subadd.o)
 .bss           0x00000000        0x0 c:/program files (x86)/microchip/xc32/v2.05/bin/bin/../../lib/gcc/pic32mx/4.8.3/../../../../pic32mx/lib\libm.a(fp32subadd.o)
 .reginfo       0x00000000       0x18 c:/program files (x86)/microchip/xc32/v2.05/bin/bin/../../lib/gcc/pic32mx/4.8.3/../../../../pic32mx/lib\libm.a(fp32subadd.o)
 .text          0x00000000        0x0 c:/program files (x86)/microchip/xc32/v2.05/bin/bin/../../lib/gcc/pic32mx/4.8.3/../../../../pic32mx/lib\libm.a(fpcmp.o)
 .data          0x00000000        0x0 c:/program files (x86)/microchip/xc32/v2.05/bin/bin/../../lib/gcc/pic32mx/4.8.3/../../../../pic32mx/lib\libm.a(fpcmp.o)
 .bss           0x00000000        0x0 c:/program files (x86)/microchip/xc32/v2.05/bin/bin/../../lib/gcc/pic32mx/4.8.3/../../../../pic32mx/lib\libm.a(fpcmp.o)
 .reginfo       0x00000000       0x18 c:/program files (x86)/microchip/xc32/v2.05/bin/bin/../../lib/gcc/pic32mx/4.8.3/../../../../pic32mx/lib\libm.a(fpcmp.o)
 .text          0x00000000        0x0 c:/program files (x86)/microchip/xc32/v2.05/bin/bin/../../lib/gcc/pic32mx/4.8.3/../../../../pic32mx/lib\libm.a(fptodp.o)
 .data          0x00000000        0x0 c:/program files (x86)/microchip/xc32/v2.05/bin/bin/../../lib/gcc/pic32mx/4.8.3/../../../../pic32mx/lib\libm.a(fptodp.o)
 .bss           0x00000000        0x0 c:/program files (x86)/microchip/xc32/v2.05/bin/bin/../../lib/gcc/pic32mx/4.8.3/../../../../pic32mx/lib\libm.a(fptodp.o)
 .reginfo       0x00000000       0x18 c:/program files (x86)/microchip/xc32/v2.05/bin/bin/../../lib/gcc/pic32mx/4.8.3/../../../../pic32mx/lib\libm.a(fptodp.o)
 .text          0x00000000        0x0 c:/program files (x86)/microchip/xc32/v2.05/bin/bin/../../lib/gcc/pic32mx/4.8.3/../../../../pic32mx/lib\libm.a(__strtof.o)
 .data          0x00000000        0x0 c:/program files (x86)/microchip/xc32/v2.05/bin/bin/../../lib/gcc/pic32mx/4.8.3/../../../../pic32mx/lib\libm.a(__strtof.o)
 .bss           0x00000000        0x0 c:/program files (x86)/microchip/xc32/v2.05/bin/bin/../../lib/gcc/pic32mx/4.8.3/../../../../pic32mx/lib\libm.a(__strtof.o)
 .reginfo       0x00000000       0x18 c:/program files (x86)/microchip/xc32/v2.05/bin/bin/../../lib/gcc/pic32mx/4.8.3/../../../../pic32mx/lib\libm.a(__strtof.o)
 .text          0x00000000        0x0 c:/program files (x86)/microchip/xc32/v2.05/bin/bin/../../lib/gcc/pic32mx/4.8.3/../../../../pic32mx/lib\libm.a(fp32div.o)
 .data          0x00000000        0x0 c:/program files (x86)/microchip/xc32/v2.05/bin/bin/../../lib/gcc/pic32mx/4.8.3/../../../../pic32mx/lib\libm.a(fp32div.o)
 .bss           0x00000000        0x0 c:/program files (x86)/microchip/xc32/v2.05/bin/bin/../../lib/gcc/pic32mx/4.8.3/../../../../pic32mx/lib\libm.a(fp32div.o)
 .reginfo       0x00000000       0x18 c:/program files (x86)/microchip/xc32/v2.05/bin/bin/../../lib/gcc/pic32mx/4.8.3/../../../../pic32mx/lib\libm.a(fp32div.o)
 .text          0x00000000        0x0 c:/program files (x86)/microchip/xc32/v2.05/bin/bin/../../lib/gcc/pic32mx/4.8.3/../../../../pic32mx/lib\libm.a(fp32mul.o)
 .data          0x00000000        0x0 c:/program files (x86)/microchip/xc32/v2.05/bin/bin/../../lib/gcc/pic32mx/4.8.3/../../../../pic32mx/lib\libm.a(fp32mul.o)
 .bss           0x00000000        0x0 c:/program files (x86)/microchip/xc32/v2.05/bin/bin/../../lib/gcc/pic32mx/4.8.3/../../../../pic32mx/lib\libm.a(fp32mul.o)
 .reginfo       0x00000000       0x18 c:/program files (x86)/microchip/xc32/v2.05/bin/bin/../../lib/gcc/pic32mx/4.8.3/../../../../pic32mx/lib\libm.a(fp32mul.o)
 .text          0x00000000        0x0 c:/program files (x86)/microchip/xc32/v2.05/bin/bin/../../lib/gcc/pic32mx/4.8.3/../../../../pic32mx/lib\libm.a(negsf2.o)
 .data          0x00000000        0x0 c:/program files (x86)/microchip/xc32/v2.05/bin/bin/../../lib/gcc/pic32mx/4.8.3/../../../../pic32mx/lib\libm.a(negsf2.o)
 .bss           0x00000000        0x0 c:/program files (x86)/microchip/xc32/v2.05/bin/bin/../../lib/gcc/pic32mx/4.8.3/../../../../pic32mx/lib\libm.a(negsf2.o)
 .reginfo       0x00000000       0x18 c:/program files (x86)/microchip/xc32/v2.05/bin/bin/../../lib/gcc/pic32mx/4.8.3/../../../../pic32mx/lib\libm.a(negsf2.o)
 .text          0x00000000        0x0 c:/program files (x86)/microchip/xc32/v2.05/bin/bin/../../lib/gcc/pic32mx/4.8.3/../../../../pic32mx/lib\libm.a(sitofp.o)
 .data          0x00000000        0x0 c:/program files (x86)/microchip/xc32/v2.05/bin/bin/../../lib/gcc/pic32mx/4.8.3/../../../../pic32mx/lib\libm.a(sitofp.o)
 .bss           0x00000000        0x0 c:/program files (x86)/microchip/xc32/v2.05/bin/bin/../../lib/gcc/pic32mx/4.8.3/../../../../pic32mx/lib\libm.a(sitofp.o)
 .reginfo       0x00000000       0x18 c:/program files (x86)/microchip/xc32/v2.05/bin/bin/../../lib/gcc/pic32mx/4.8.3/../../../../pic32mx/lib\libm.a(sitofp.o)
 .text          0x00000000        0x0 c:/program files (x86)/microchip/xc32/v2.05/bin/bin/../../lib/gcc/pic32mx/4.8.3/../../../../pic32mx/lib\libe.a(_fixunsdfdi.o)
 .data          0x00000000        0x0 c:/program files (x86)/microchip/xc32/v2.05/bin/bin/../../lib/gcc/pic32mx/4.8.3/../../../../pic32mx/lib\libe.a(_fixunsdfdi.o)
 .bss           0x00000000        0x0 c:/program files (x86)/microchip/xc32/v2.05/bin/bin/../../lib/gcc/pic32mx/4.8.3/../../../../pic32mx/lib\libe.a(_fixunsdfdi.o)
 .reginfo       0x00000000       0x18 c:/program files (x86)/microchip/xc32/v2.05/bin/bin/../../lib/gcc/pic32mx/4.8.3/../../../../pic32mx/lib\libe.a(_fixunsdfdi.o)
 .text          0x00000000        0x0 c:/program files (x86)/microchip/xc32/v2.05/bin/bin/../../lib/gcc/pic32mx/4.8.3/../../../../pic32mx/lib\libe.a(_orderdf2.o)
 .data          0x00000000        0x0 c:/program files (x86)/microchip/xc32/v2.05/bin/bin/../../lib/gcc/pic32mx/4.8.3/../../../../pic32mx/lib\libe.a(_orderdf2.o)
 .bss           0x00000000        0x0 c:/program files (x86)/microchip/xc32/v2.05/bin/bin/../../lib/gcc/pic32mx/4.8.3/../../../../pic32mx/lib\libe.a(_orderdf2.o)
 .reginfo       0x00000000       0x18 c:/program files (x86)/microchip/xc32/v2.05/bin/bin/../../lib/gcc/pic32mx/4.8.3/../../../../pic32mx/lib\libe.a(_orderdf2.o)
 .text          0x00000000        0x0 c:/program files (x86)/microchip/xc32/v2.05/bin/bin/../../lib/gcc/pic32mx/4.8.3/../../../../pic32mx/lib\libe.a(_ldexpf.o)
 .data          0x00000000        0x0 c:/program files (x86)/microchip/xc32/v2.05/bin/bin/../../lib/gcc/pic32mx/4.8.3/../../../../pic32mx/lib\libe.a(_ldexpf.o)
 .bss           0x00000000        0x0 c:/program files (x86)/microchip/xc32/v2.05/bin/bin/../../lib/gcc/pic32mx/4.8.3/../../../../pic32mx/lib\libe.a(_ldexpf.o)
 .reginfo       0x00000000       0x18 c:/program files (x86)/microchip/xc32/v2.05/bin/bin/../../lib/gcc/pic32mx/4.8.3/../../../../pic32mx/lib\libe.a(_ldexpf.o)
 .text          0x00000000        0x0 c:/program files (x86)/microchip/xc32/v2.05/bin/bin/../../lib/gcc/pic32mx/4.8.3/../../../../pic32mx/lib\libe.a(_fixdfdi.o)
 .data          0x00000000        0x0 c:/program files (x86)/microchip/xc32/v2.05/bin/bin/../../lib/gcc/pic32mx/4.8.3/../../../../pic32mx/lib\libe.a(_fixdfdi.o)
 .bss           0x00000000        0x0 c:/program files (x86)/microchip/xc32/v2.05/bin/bin/../../lib/gcc/pic32mx/4.8.3/../../../../pic32mx/lib\libe.a(_fixdfdi.o)
 .reginfo       0x00000000       0x18 c:/program files (x86)/microchip/xc32/v2.05/bin/bin/../../lib/gcc/pic32mx/4.8.3/../../../../pic32mx/lib\libe.a(_fixdfdi.o)
 .data          0x00000000        0x0 c:/program files (x86)/microchip/xc32/v2.05/bin/bin/../../lib/gcc/pic32mx/4.8.3\libgcc.a(_floatundidf.o)
 .bss           0x00000000        0x0 c:/program files (x86)/microchip/xc32/v2.05/bin/bin/../../lib/gcc/pic32mx/4.8.3\libgcc.a(_floatundidf.o)
 .reginfo       0x00000000       0x18 c:/program files (x86)/microchip/xc32/v2.05/bin/bin/../../lib/gcc/pic32mx/4.8.3\libgcc.a(_floatundidf.o)
 .data          0x00000000        0x0 c:/program files (x86)/microchip/xc32/v2.05/bin/bin/../../lib/gcc/pic32mx/4.8.3\libgcc.a(_udivdi3.o)
 .bss           0x00000000        0x0 c:/program files (x86)/microchip/xc32/v2.05/bin/bin/../../lib/gcc/pic32mx/4.8.3\libgcc.a(_udivdi3.o)
 .reginfo       0x00000000       0x18 c:/program files (x86)/microchip/xc32/v2.05/bin/bin/../../lib/gcc/pic32mx/4.8.3\libgcc.a(_udivdi3.o)
 .data          0x00000000        0x0 c:/program files (x86)/microchip/xc32/v2.05/bin/bin/../../lib/gcc/pic32mx/4.8.3\libgcc.a(_umoddi3.o)
 .bss           0x00000000        0x0 c:/program files (x86)/microchip/xc32/v2.05/bin/bin/../../lib/gcc/pic32mx/4.8.3\libgcc.a(_umoddi3.o)
 .reginfo       0x00000000       0x18 c:/program files (x86)/microchip/xc32/v2.05/bin/bin/../../lib/gcc/pic32mx/4.8.3\libgcc.a(_umoddi3.o)
 .data          0x00000000        0x0 c:/program files (x86)/microchip/xc32/v2.05/bin/bin/../../lib/gcc/pic32mx/4.8.3\libgcc.a(floatunsidf.o)
 .bss           0x00000000        0x0 c:/program files (x86)/microchip/xc32/v2.05/bin/bin/../../lib/gcc/pic32mx/4.8.3\libgcc.a(floatunsidf.o)
 .reginfo       0x00000000       0x18 c:/program files (x86)/microchip/xc32/v2.05/bin/bin/../../lib/gcc/pic32mx/4.8.3\libgcc.a(floatunsidf.o)
 .text          0x00000000        0x0 c:/program files (x86)/microchip/xc32/v2.05/bin/bin/../../lib/gcc/pic32mx/4.8.3/../../../../pic32mx/lib\libpic32.a(write.o)
 .data          0x00000000        0x0 c:/program files (x86)/microchip/xc32/v2.05/bin/bin/../../lib/gcc/pic32mx/4.8.3/../../../../pic32mx/lib\libpic32.a(write.o)
 .bss           0x00000000        0x0 c:/program files (x86)/microchip/xc32/v2.05/bin/bin/../../lib/gcc/pic32mx/4.8.3/../../../../pic32mx/lib\libpic32.a(write.o)
 .reginfo       0x00000000       0x18 c:/program files (x86)/microchip/xc32/v2.05/bin/bin/../../lib/gcc/pic32mx/4.8.3/../../../../pic32mx/lib\libpic32.a(write.o)
 .text          0x00000000        0x0 c:/program files (x86)/microchip/xc32/v2.05/bin/bin/../../lib/gcc/pic32mx/4.8.3/../../../../pic32mx/lib\libpic32.a(errno.o)
 .data          0x00000000        0x0 c:/program files (x86)/microchip/xc32/v2.05/bin/bin/../../lib/gcc/pic32mx/4.8.3/../../../../pic32mx/lib\libpic32.a(errno.o)
 .bss           0x00000000        0x0 c:/program files (x86)/microchip/xc32/v2.05/bin/bin/../../lib/gcc/pic32mx/4.8.3/../../../../pic32mx/lib\libpic32.a(errno.o)
 .reginfo       0x00000000       0x18 c:/program files (x86)/microchip/xc32/v2.05/bin/bin/../../lib/gcc/pic32mx/4.8.3/../../../../pic32mx/lib\libpic32.a(errno.o)
 .text          0x00000000        0x0 c:/program files (x86)/microchip/xc32/v2.05/bin/bin/../../lib/gcc/pic32mx/4.8.3/../../../../pic32mx/lib\libm.a(litodp.o)
 .data          0x00000000        0x0 c:/program files (x86)/microchip/xc32/v2.05/bin/bin/../../lib/gcc/pic32mx/4.8.3/../../../../pic32mx/lib\libm.a(litodp.o)
 .bss           0x00000000        0x0 c:/program files (x86)/microchip/xc32/v2.05/bin/bin/../../lib/gcc/pic32mx/4.8.3/../../../../pic32mx/lib\libm.a(litodp.o)
 .reginfo       0x00000000       0x18 c:/program files (x86)/microchip/xc32/v2.05/bin/bin/../../lib/gcc/pic32mx/4.8.3/../../../../pic32mx/lib\libm.a(litodp.o)

Memory Configuration

Name             Origin             Length             Attributes
kseg0_data_mem   0x80000000         0x00000200
kseg1_data_mem   0xa0000000         0x00008000         w !x
kseg0_boot_mem   0x9fc00490         0x00000970
kseg1_boot_mem   0xbfc00000         0x00000490
kseg0_program_mem 0x9d000000         0x00040000         xr
exception_mem    0x9fc01000         0x00001000
debug_exec_mem   0xbfc02000         0x00000ff0
config3          0xbfc02ff0         0x00000004
config2          0xbfc02ff4         0x00000004
config1          0xbfc02ff8         0x00000004
config0          0xbfc02ffc         0x00000004
sfrs             0xbf800000         0x00100000
configsfrs       0xbfc02ff0         0x00000010
*default*        0x00000000         0xffffffff

Linker script and memory map


reserve_data_0_kseg0
                0x80000000      0x200
                0x80000000        0x2 SHORT 0x0
                0x000001fd                . = 0x1fd
 *fill*         0x80000002      0x1fb 
                0x80000200                . = ALIGN (0x4)
 *fill*         0x800001fd        0x3 

reserve_data_0_kseg1
                0xa0000000      0x200
                0xa0000000        0x2 SHORT 0x0
                0x000001fd                . = 0x1fd
 *fill*         0xa0000002      0x1fb 
                0xa0000200                . = ALIGN (0x4)
 *fill*         0xa00001fd        0x3 

reserve_boot_0x1fc02000_kseg0
                0x9fc02000      0xff0
                0x9fc02000        0x2 SHORT 0x0
                0x00000500                . = 0x500
 *fill*         0x9fc02002      0x4fe 
                0x9fc02500                . = ALIGN (0x4)
                0x9fc02500        0x2 SHORT 0x0
                0x00000ff0                . = 0xff0
 *fill*         0x9fc02502      0xaee 
                0x9fc02ff0                . = ALIGN (0x4)

reserve_boot_0x1fc02000_kseg1
                0xbfc02000      0xff0
                0xbfc02000        0x2 SHORT 0x0
                0x00000500                . = 0x500
 *fill*         0xbfc02002      0x4fe 
                0xbfc02500                . = ALIGN (0x4)
                0xbfc02500        0x2 SHORT 0x0
                0x00000ff0                . = 0xff0
 *fill*         0xbfc02502      0xaee 
                0xbfc02ff0                . = ALIGN (0x4)
LOAD c:/program files (x86)/microchip/xc32/v2.05/bin/bin/../../lib/gcc/pic32mx/4.8.3/../../../../pic32mx/lib/./proc/32MX440F256H/crt0_mips32r2.o
LOAD c:/program files (x86)/microchip/xc32/v2.05/bin/bin/../../lib/gcc/pic32mx/4.8.3/../../../../pic32mx/lib\software-debug-break.o
LOAD build/default/debug/_ext/2128569739/drv_usbfs.o
LOAD build/default/debug/_ext/2128569739/drv_usbfs_device.o
LOAD build/default/debug/_ext/60165520/plib_clk.o
LOAD build/default/debug/_ext/1249264884/plib_coretimer.o
LOAD build/default/debug/_ext/1865200349/plib_evic.o
LOAD build/default/debug/_ext/1865254177/plib_gpio.o
LOAD build/default/debug/_ext/1865657120/plib_uart1.o
LOAD build/default/debug/_ext/1865657120/plib_uart2.o
LOAD build/default/debug/_ext/163028504/xc32_monitor.o
LOAD build/default/debug/_ext/1881668453/sys_int.o
LOAD build/default/debug/_ext/308758920/usb_device.o
LOAD build/default/debug/_ext/308758920/usb_device_cdc.o
LOAD build/default/debug/_ext/308758920/usb_device_cdc_acm.o
LOAD build/default/debug/_ext/1171490990/initialization.o
LOAD build/default/debug/_ext/1171490990/interrupts.o
LOAD build/default/debug/_ext/1171490990/exceptions.o
LOAD build/default/debug/_ext/1171490990/usb_device_init_data.o
LOAD build/default/debug/_ext/1171490990/tasks.o
LOAD build/default/debug/_ext/1360937237/main.o
LOAD build/default/debug/_ext/1360937237/app.o
LOAD build/default/debug/_ext/1360937237/D32.o
LOAD build/default/debug/_ext/1360937237/app_main.o
LOAD build/default/debug/_ext/1548692632/Athena.o
LOAD build/default/debug/_ext/1548692632/thermal_states.o
LOAD build/default/debug/_ext/1360937237/thermal_commands.o
                0x00000001                __MPLAB_BUILD = 0x1
                0x00000400                PROVIDE (_min_stack_size, 0x400)
START GROUP
LOAD c:/program files (x86)/microchip/xc32/v2.05/bin/bin/../../lib/gcc/pic32mx/4.8.3/../../../../pic32mx/lib/./proc/32MX440F256H\processor.o
END GROUP
START GROUP
LOAD libmchp_peripheral.a
END GROUP
START GROUP
LOAD libmchp_peripheral_32MX440F256H.a
END GROUP
                0x00000001                PROVIDE (_vector_spacing, 0x1)
                0x9fc01000                PROVIDE (_ebase_address, 0x9fc01000)
                0xbfc00000                _RESET_ADDR = 0xbfc00000
                0xbfc00380                _BEV_EXCPT_ADDR = 0xbfc00380
                0xbfc00480                _DBG_EXCPT_ADDR = 0xbfc00480
                0xbfc02000                _DBG_CODE_ADDR = 0xbfc02000
                0x00000ff0                _DBG_CODE_SIZE = 0xff0
                0x9fc01180                _GEN_EXCPT_ADDR = (_ebase_address + 0x180)

.config_BFC02FF0
                0xbfc02ff0        0x4
 *(.config_BFC02FF0)
 .config_BFC02FF0
                0xbfc02ff0        0x4 build/default/debug/_ext/1171490990/initialization.o

.config_BFC02FF4
                0xbfc02ff4        0x4
 *(.config_BFC02FF4)
 .config_BFC02FF4
                0xbfc02ff4        0x4 build/default/debug/_ext/1171490990/initialization.o

.config_BFC02FF8
                0xbfc02ff8        0x4
 *(.config_BFC02FF8)
 .config_BFC02FF8
                0xbfc02ff8        0x4 build/default/debug/_ext/1171490990/initialization.o

.config_BFC02FFC
                0xbfc02ffc        0x4
 *(.config_BFC02FFC)
 .config_BFC02FFC
                0xbfc02ffc        0x4 build/default/debug/_ext/1171490990/initialization.o

.reset          0xbfc00000      0x208
 *(.reset)
 .reset         0xbfc00000        0x8 c:/program files (x86)/microchip/xc32/v2.05/bin/bin/../../lib/gcc/pic32mx/4.8.3/../../../../pic32mx/lib/./proc/32MX440F256H/crt0_mips32r2.o
                0xbfc00000                _reset
 *(.reset.startup)
 .reset.startup
                0xbfc00008      0x200 c:/program files (x86)/microchip/xc32/v2.05/bin/bin/../../lib/gcc/pic32mx/4.8.3/../../../../pic32mx/lib/./proc/32MX440F256H/crt0_mips32r2.o
                0xbfc00008                _startup

.bev_excpt      0xbfc00380       0x10
 *(.bev_handler)
 .bev_handler   0xbfc00380       0x10 c:/program files (x86)/microchip/xc32/v2.05/bin/bin/../../lib/gcc/pic32mx/4.8.3/../../../../pic32mx/lib/./proc/32MX440F256H/crt0_mips32r2.o

.dbg_excpt      0xbfc00480        0x0
                0xbfc00480                . = (. + DEFINED (_DEBUGGER)?0x8:0x0)

.dbg_code       0xbfc02000        0x0
                0xbfc02000                . = (. + DEFINED (_DEBUGGER)?_DBG_CODE_SIZE:0x0)

.app_excpt      0x9fc01180       0x10
 *(.gen_handler)
 .gen_handler   0x9fc01180       0x10 c:/program files (x86)/microchip/xc32/v2.05/bin/bin/../../lib/gcc/pic32mx/4.8.3/../../../../pic32mx/lib/./proc/32MX440F256H/crt0_mips32r2.o

.vector_0       0x9fc01200        0x8
 *(.vector_0)
 .vector_0      0x9fc01200        0x8 build/default/debug/_ext/1171490990/interrupts.o
                0x9fc01200                __vector_dispatch_0
                0x00000001                ASSERT (((_vector_spacing == 0x0) || (SIZEOF (.vector_0) <= (_vector_spacing << 0x5))), function at exception vector 0 too large)

.vector_1       0x9fc01220        0x8
 *(.vector_1)
 .vector_1      0x9fc01220        0x8 build/default/debug/_ext/1171490990/interrupts.o
                0x9fc01220                __vector_dispatch_1
                0x00000001                ASSERT (((_vector_spacing == 0x0) || (SIZEOF (.vector_1) <= (_vector_spacing << 0x5))), function at exception vector 1 too large)

.vector_2       0x9fc01240        0x8
 *(.vector_2)
 .vector_2      0x9fc01240        0x8 c:/program files (x86)/microchip/xc32/v2.05/bin/bin/../../lib/gcc/pic32mx/4.8.3/../../../../pic32mx/lib\libpic32.a(vector2.o)
                0x9fc01240                __vector_dispatch_2
                0x00000001                ASSERT (((_vector_spacing == 0x0) || (SIZEOF (.vector_2) <= (_vector_spacing << 0x5))), function at exception vector 2 too large)

.vector_3       0x9fc01260        0x8
 *(.vector_3)
 .vector_3      0x9fc01260        0x8 c:/program files (x86)/microchip/xc32/v2.05/bin/bin/../../lib/gcc/pic32mx/4.8.3/../../../../pic32mx/lib\libpic32.a(vector3.o)
                0x9fc01260                __vector_dispatch_3
                0x00000001                ASSERT (((_vector_spacing == 0x0) || (SIZEOF (.vector_3) <= (_vector_spacing << 0x5))), function at exception vector 3 too large)

.vector_4       0x9fc01280        0x8
 *(.vector_4)
 .vector_4      0x9fc01280        0x8 build/default/debug/_ext/1171490990/interrupts.o
                0x9fc01280                __vector_dispatch_4
                0x00000001                ASSERT (((_vector_spacing == 0x0) || (SIZEOF (.vector_4) <= (_vector_spacing << 0x5))), function at exception vector 4 too large)

.vector_5       0x9fc012a0        0x8
 *(.vector_5)
 .vector_5      0x9fc012a0        0x8 c:/program files (x86)/microchip/xc32/v2.05/bin/bin/../../lib/gcc/pic32mx/4.8.3/../../../../pic32mx/lib\libpic32.a(vector5.o)
                0x9fc012a0                __vector_dispatch_5
                0x00000001                ASSERT (((_vector_spacing == 0x0) || (SIZEOF (.vector_5) <= (_vector_spacing << 0x5))), function at exception vector 5 too large)

.vector_6       0x9fc012c0        0x8
 *(.vector_6)
 .vector_6      0x9fc012c0        0x8 c:/program files (x86)/microchip/xc32/v2.05/bin/bin/../../lib/gcc/pic32mx/4.8.3/../../../../pic32mx/lib\libpic32.a(vector6.o)
                0x9fc012c0                __vector_dispatch_6
                0x00000001                ASSERT (((_vector_spacing == 0x0) || (SIZEOF (.vector_6) <= (_vector_spacing << 0x5))), function at exception vector 6 too large)

.vector_7       0x9fc012e0        0x8
 *(.vector_7)
 .vector_7      0x9fc012e0        0x8 c:/program files (x86)/microchip/xc32/v2.05/bin/bin/../../lib/gcc/pic32mx/4.8.3/../../../../pic32mx/lib\libpic32.a(vector7.o)
                0x9fc012e0                __vector_dispatch_7
                0x00000001                ASSERT (((_vector_spacing == 0x0) || (SIZEOF (.vector_7) <= (_vector_spacing << 0x5))), function at exception vector 7 too large)

.vector_8       0x9fc01300        0x8
 *(.vector_8)
 .vector_8      0x9fc01300        0x8 c:/program files (x86)/microchip/xc32/v2.05/bin/bin/../../lib/gcc/pic32mx/4.8.3/../../../../pic32mx/lib\libpic32.a(vector8.o)
                0x9fc01300                __vector_dispatch_8
                0x00000001                ASSERT (((_vector_spacing == 0x0) || (SIZEOF (.vector_8) <= (_vector_spacing << 0x5))), function at exception vector 8 too large)

.vector_9       0x9fc01320        0x8
 *(.vector_9)
 .vector_9      0x9fc01320        0x8 c:/program files (x86)/microchip/xc32/v2.05/bin/bin/../../lib/gcc/pic32mx/4.8.3/../../../../pic32mx/lib\libpic32.a(vector9.o)
                0x9fc01320                __vector_dispatch_9
                0x00000001                ASSERT (((_vector_spacing == 0x0) || (SIZEOF (.vector_9) <= (_vector_spacing << 0x5))), function at exception vector 9 too large)

.vector_10      0x9fc01340        0x8
 *(.vector_10)
 .vector_10     0x9fc01340        0x8 c:/program files (x86)/microchip/xc32/v2.05/bin/bin/../../lib/gcc/pic32mx/4.8.3/../../../../pic32mx/lib\libpic32.a(vector10.o)
                0x9fc01340                __vector_dispatch_10
                0x00000001                ASSERT (((_vector_spacing == 0x0) || (SIZEOF (.vector_10) <= (_vector_spacing << 0x5))), function at exception vector 10 too large)

.vector_11      0x9fc01360        0x8
 *(.vector_11)
 .vector_11     0x9fc01360        0x8 c:/program files (x86)/microchip/xc32/v2.05/bin/bin/../../lib/gcc/pic32mx/4.8.3/../../../../pic32mx/lib\libpic32.a(vector11.o)
                0x9fc01360                __vector_dispatch_11
                0x00000001                ASSERT (((_vector_spacing == 0x0) || (SIZEOF (.vector_11) <= (_vector_spacing << 0x5))), function at exception vector 11 too large)

.vector_12      0x9fc01380        0x8
 *(.vector_12)
 .vector_12     0x9fc01380        0x8 c:/program files (x86)/microchip/xc32/v2.05/bin/bin/../../lib/gcc/pic32mx/4.8.3/../../../../pic32mx/lib\libpic32.a(vector12.o)
                0x9fc01380                __vector_dispatch_12
                0x00000001                ASSERT (((_vector_spacing == 0x0) || (SIZEOF (.vector_12) <= (_vector_spacing << 0x5))), function at exception vector 12 too large)

.vector_13      0x9fc013a0        0x8
 *(.vector_13)
 .vector_13     0x9fc013a0        0x8 c:/program files (x86)/microchip/xc32/v2.05/bin/bin/../../lib/gcc/pic32mx/4.8.3/../../../../pic32mx/lib\libpic32.a(vector13.o)
                0x9fc013a0                __vector_dispatch_13
                0x00000001                ASSERT (((_vector_spacing == 0x0) || (SIZEOF (.vector_13) <= (_vector_spacing << 0x5))), function at exception vector 13 too large)

.vector_14      0x9fc013c0        0x8
 *(.vector_14)
 .vector_14     0x9fc013c0        0x8 c:/program files (x86)/microchip/xc32/v2.05/bin/bin/../../lib/gcc/pic32mx/4.8.3/../../../../pic32mx/lib\libpic32.a(vector14.o)
                0x9fc013c0                __vector_dispatch_14
                0x00000001                ASSERT (((_vector_spacing == 0x0) || (SIZEOF (.vector_14) <= (_vector_spacing << 0x5))), function at exception vector 14 too large)

.vector_15      0x9fc013e0        0x8
 *(.vector_15)
 .vector_15     0x9fc013e0        0x8 c:/program files (x86)/microchip/xc32/v2.05/bin/bin/../../lib/gcc/pic32mx/4.8.3/../../../../pic32mx/lib\libpic32.a(vector15.o)
                0x9fc013e0                __vector_dispatch_15
                0x00000001                ASSERT (((_vector_spacing == 0x0) || (SIZEOF (.vector_15) <= (_vector_spacing << 0x5))), function at exception vector 15 too large)

.vector_16      0x9fc01400        0x8
 *(.vector_16)
 .vector_16     0x9fc01400        0x8 c:/program files (x86)/microchip/xc32/v2.05/bin/bin/../../lib/gcc/pic32mx/4.8.3/../../../../pic32mx/lib\libpic32.a(vector16.o)
                0x9fc01400                __vector_dispatch_16
                0x00000001                ASSERT (((_vector_spacing == 0x0) || (SIZEOF (.vector_16) <= (_vector_spacing << 0x5))), function at exception vector 16 too large)

.vector_17      0x9fc01420        0x8
 *(.vector_17)
 .vector_17     0x9fc01420        0x8 c:/program files (x86)/microchip/xc32/v2.05/bin/bin/../../lib/gcc/pic32mx/4.8.3/../../../../pic32mx/lib\libpic32.a(vector17.o)
                0x9fc01420                __vector_dispatch_17
                0x00000001                ASSERT (((_vector_spacing == 0x0) || (SIZEOF (.vector_17) <= (_vector_spacing << 0x5))), function at exception vector 17 too large)

.vector_18      0x9fc01440        0x8
 *(.vector_18)
 .vector_18     0x9fc01440        0x8 c:/program files (x86)/microchip/xc32/v2.05/bin/bin/../../lib/gcc/pic32mx/4.8.3/../../../../pic32mx/lib\libpic32.a(vector18.o)
                0x9fc01440                __vector_dispatch_18
                0x00000001                ASSERT (((_vector_spacing == 0x0) || (SIZEOF (.vector_18) <= (_vector_spacing << 0x5))), function at exception vector 18 too large)

.vector_19      0x9fc01460        0x8
 *(.vector_19)
 .vector_19     0x9fc01460        0x8 c:/program files (x86)/microchip/xc32/v2.05/bin/bin/../../lib/gcc/pic32mx/4.8.3/../../../../pic32mx/lib\libpic32.a(vector19.o)
                0x9fc01460                __vector_dispatch_19
                0x00000001                ASSERT (((_vector_spacing == 0x0) || (SIZEOF (.vector_19) <= (_vector_spacing << 0x5))), function at exception vector 19 too large)

.vector_20      0x9fc01480        0x8
 *(.vector_20)
 .vector_20     0x9fc01480        0x8 c:/program files (x86)/microchip/xc32/v2.05/bin/bin/../../lib/gcc/pic32mx/4.8.3/../../../../pic32mx/lib\libpic32.a(vector20.o)
                0x9fc01480                __vector_dispatch_20
                0x00000001                ASSERT (((_vector_spacing == 0x0) || (SIZEOF (.vector_20) <= (_vector_spacing << 0x5))), function at exception vector 20 too large)

.vector_21      0x9fc014a0        0x8
 *(.vector_21)
 .vector_21     0x9fc014a0        0x8 c:/program files (x86)/microchip/xc32/v2.05/bin/bin/../../lib/gcc/pic32mx/4.8.3/../../../../pic32mx/lib\libpic32.a(vector21.o)
                0x9fc014a0                __vector_dispatch_21
                0x00000001                ASSERT (((_vector_spacing == 0x0) || (SIZEOF (.vector_21) <= (_vector_spacing << 0x5))), function at exception vector 21 too large)

.vector_22      0x9fc014c0        0x8
 *(.vector_22)
 .vector_22     0x9fc014c0        0x8 c:/program files (x86)/microchip/xc32/v2.05/bin/bin/../../lib/gcc/pic32mx/4.8.3/../../../../pic32mx/lib\libpic32.a(vector22.o)
                0x9fc014c0                __vector_dispatch_22
                0x00000001                ASSERT (((_vector_spacing == 0x0) || (SIZEOF (.vector_22) <= (_vector_spacing << 0x5))), function at exception vector 22 too large)

.vector_23      0x9fc014e0        0x8
 *(.vector_23)
 .vector_23     0x9fc014e0        0x8 c:/program files (x86)/microchip/xc32/v2.05/bin/bin/../../lib/gcc/pic32mx/4.8.3/../../../../pic32mx/lib\libpic32.a(vector23.o)
                0x9fc014e0                __vector_dispatch_23
                0x00000001                ASSERT (((_vector_spacing == 0x0) || (SIZEOF (.vector_23) <= (_vector_spacing << 0x5))), function at exception vector 23 too large)

.vector_24      0x9fc01500        0x8
 *(.vector_24)
 .vector_24     0x9fc01500        0x8 c:/program files (x86)/microchip/xc32/v2.05/bin/bin/../../lib/gcc/pic32mx/4.8.3/../../../../pic32mx/lib\libpic32.a(vector24.o)
                0x9fc01500                __vector_dispatch_24
                0x00000001                ASSERT (((_vector_spacing == 0x0) || (SIZEOF (.vector_24) <= (_vector_spacing << 0x5))), function at exception vector 24 too large)

.vector_25      0x9fc01520        0x8
 *(.vector_25)
 .vector_25     0x9fc01520        0x8 c:/program files (x86)/microchip/xc32/v2.05/bin/bin/../../lib/gcc/pic32mx/4.8.3/../../../../pic32mx/lib\libpic32.a(vector25.o)
                0x9fc01520                __vector_dispatch_25
                0x00000001                ASSERT (((_vector_spacing == 0x0) || (SIZEOF (.vector_25) <= (_vector_spacing << 0x5))), function at exception vector 25 too large)

.vector_26      0x9fc01540        0x8
 *(.vector_26)
 .vector_26     0x9fc01540        0x8 c:/program files (x86)/microchip/xc32/v2.05/bin/bin/../../lib/gcc/pic32mx/4.8.3/../../../../pic32mx/lib\libpic32.a(vector26.o)
                0x9fc01540                __vector_dispatch_26
                0x00000001                ASSERT (((_vector_spacing == 0x0) || (SIZEOF (.vector_26) <= (_vector_spacing << 0x5))), function at exception vector 26 too large)

.vector_27      0x9fc01560        0x8
 *(.vector_27)
 .vector_27     0x9fc01560        0x8 c:/program files (x86)/microchip/xc32/v2.05/bin/bin/../../lib/gcc/pic32mx/4.8.3/../../../../pic32mx/lib\libpic32.a(vector27.o)
                0x9fc01560                __vector_dispatch_27
                0x00000001                ASSERT (((_vector_spacing == 0x0) || (SIZEOF (.vector_27) <= (_vector_spacing << 0x5))), function at exception vector 27 too large)

.vector_28      0x9fc01580        0x8
 *(.vector_28)
 .vector_28     0x9fc01580        0x8 c:/program files (x86)/microchip/xc32/v2.05/bin/bin/../../lib/gcc/pic32mx/4.8.3/../../../../pic32mx/lib\libpic32.a(vector28.o)
                0x9fc01580                __vector_dispatch_28
                0x00000001                ASSERT (((_vector_spacing == 0x0) || (SIZEOF (.vector_28) <= (_vector_spacing << 0x5))), function at exception vector 28 too large)

.vector_29      0x9fc015a0        0x8
 *(.vector_29)
 .vector_29     0x9fc015a0        0x8 c:/program files (x86)/microchip/xc32/v2.05/bin/bin/../../lib/gcc/pic32mx/4.8.3/../../../../pic32mx/lib\libpic32.a(vector29.o)
                0x9fc015a0                __vector_dispatch_29
                0x00000001                ASSERT (((_vector_spacing == 0x0) || (SIZEOF (.vector_29) <= (_vector_spacing << 0x5))), function at exception vector 29 too large)

.vector_30      0x9fc015c0        0x8
 *(.vector_30)
 .vector_30     0x9fc015c0        0x8 c:/program files (x86)/microchip/xc32/v2.05/bin/bin/../../lib/gcc/pic32mx/4.8.3/../../../../pic32mx/lib\libpic32.a(vector30.o)
                0x9fc015c0                __vector_dispatch_30
                0x00000001                ASSERT (((_vector_spacing == 0x0) || (SIZEOF (.vector_30) <= (_vector_spacing << 0x5))), function at exception vector 30 too large)

.vector_31      0x9fc015e0        0x8
 *(.vector_31)
 .vector_31     0x9fc015e0        0x8 c:/program files (x86)/microchip/xc32/v2.05/bin/bin/../../lib/gcc/pic32mx/4.8.3/../../../../pic32mx/lib\libpic32.a(vector31.o)
                0x9fc015e0                __vector_dispatch_31
                0x00000001                ASSERT (((_vector_spacing == 0x0) || (SIZEOF (.vector_31) <= (_vector_spacing << 0x5))), function at exception vector 31 too large)

.vector_32      0x9fc01600        0x8
 *(.vector_32)
 .vector_32     0x9fc01600        0x8 c:/program files (x86)/microchip/xc32/v2.05/bin/bin/../../lib/gcc/pic32mx/4.8.3/../../../../pic32mx/lib\libpic32.a(vector32.o)
                0x9fc01600                __vector_dispatch_32
                0x00000001                ASSERT (((_vector_spacing == 0x0) || (SIZEOF (.vector_32) <= (_vector_spacing << 0x5))), function at exception vector 32 too large)

.vector_33      0x9fc01620        0x8
 *(.vector_33)
 .vector_33     0x9fc01620        0x8 c:/program files (x86)/microchip/xc32/v2.05/bin/bin/../../lib/gcc/pic32mx/4.8.3/../../../../pic32mx/lib\libpic32.a(vector33.o)
                0x9fc01620                __vector_dispatch_33
                0x00000001                ASSERT (((_vector_spacing == 0x0) || (SIZEOF (.vector_33) <= (_vector_spacing << 0x5))), function at exception vector 33 too large)

.vector_34      0x9fc01640        0x8
 *(.vector_34)
 .vector_34     0x9fc01640        0x8 c:/program files (x86)/microchip/xc32/v2.05/bin/bin/../../lib/gcc/pic32mx/4.8.3/../../../../pic32mx/lib\libpic32.a(vector34.o)
                0x9fc01640                __vector_dispatch_34
                0x00000001                ASSERT (((_vector_spacing == 0x0) || (SIZEOF (.vector_34) <= (_vector_spacing << 0x5))), function at exception vector 34 too large)

.vector_35      0x9fc01660        0x8
 *(.vector_35)
 .vector_35     0x9fc01660        0x8 c:/program files (x86)/microchip/xc32/v2.05/bin/bin/../../lib/gcc/pic32mx/4.8.3/../../../../pic32mx/lib\libpic32.a(vector35.o)
                0x9fc01660                __vector_dispatch_35
                0x00000001                ASSERT (((_vector_spacing == 0x0) || (SIZEOF (.vector_35) <= (_vector_spacing << 0x5))), function at exception vector 35 too large)

.vector_36      0x9fc01680        0x8
 *(.vector_36)
 .vector_36     0x9fc01680        0x8 c:/program files (x86)/microchip/xc32/v2.05/bin/bin/../../lib/gcc/pic32mx/4.8.3/../../../../pic32mx/lib\libpic32.a(vector36.o)
                0x9fc01680                __vector_dispatch_36
                0x00000001                ASSERT (((_vector_spacing == 0x0) || (SIZEOF (.vector_36) <= (_vector_spacing << 0x5))), function at exception vector 36 too large)

.vector_37      0x9fc016a0        0x8
 *(.vector_37)
 .vector_37     0x9fc016a0        0x8 c:/program files (x86)/microchip/xc32/v2.05/bin/bin/../../lib/gcc/pic32mx/4.8.3/../../../../pic32mx/lib\libpic32.a(vector37.o)
                0x9fc016a0                __vector_dispatch_37
                0x00000001                ASSERT (((_vector_spacing == 0x0) || (SIZEOF (.vector_37) <= (_vector_spacing << 0x5))), function at exception vector 37 too large)

.vector_38      0x9fc016c0        0x8
 *(.vector_38)
 .vector_38     0x9fc016c0        0x8 c:/program files (x86)/microchip/xc32/v2.05/bin/bin/../../lib/gcc/pic32mx/4.8.3/../../../../pic32mx/lib\libpic32.a(vector38.o)
                0x9fc016c0                __vector_dispatch_38
                0x00000001                ASSERT (((_vector_spacing == 0x0) || (SIZEOF (.vector_38) <= (_vector_spacing << 0x5))), function at exception vector 38 too large)

.vector_39      0x9fc016e0        0x8
 *(.vector_39)
 .vector_39     0x9fc016e0        0x8 c:/program files (x86)/microchip/xc32/v2.05/bin/bin/../../lib/gcc/pic32mx/4.8.3/../../../../pic32mx/lib\libpic32.a(vector39.o)
                0x9fc016e0                __vector_dispatch_39
                0x00000001                ASSERT (((_vector_spacing == 0x0) || (SIZEOF (.vector_39) <= (_vector_spacing << 0x5))), function at exception vector 39 too large)

.vector_40      0x9fc01700        0x8
 *(.vector_40)
 .vector_40     0x9fc01700        0x8 c:/program files (x86)/microchip/xc32/v2.05/bin/bin/../../lib/gcc/pic32mx/4.8.3/../../../../pic32mx/lib\libpic32.a(vector40.o)
                0x9fc01700                __vector_dispatch_40
                0x00000001                ASSERT (((_vector_spacing == 0x0) || (SIZEOF (.vector_40) <= (_vector_spacing << 0x5))), function at exception vector 40 too large)

.vector_41      0x9fc01720        0x8
 *(.vector_41)
 .vector_41     0x9fc01720        0x8 c:/program files (x86)/microchip/xc32/v2.05/bin/bin/../../lib/gcc/pic32mx/4.8.3/../../../../pic32mx/lib\libpic32.a(vector41.o)
                0x9fc01720                __vector_dispatch_41
                0x00000001                ASSERT (((_vector_spacing == 0x0) || (SIZEOF (.vector_41) <= (_vector_spacing << 0x5))), function at exception vector 41 too large)

.vector_42      0x9fc01740        0x8
 *(.vector_42)
 .vector_42     0x9fc01740        0x8 c:/program files (x86)/microchip/xc32/v2.05/bin/bin/../../lib/gcc/pic32mx/4.8.3/../../../../pic32mx/lib\libpic32.a(vector42.o)
                0x9fc01740                __vector_dispatch_42
                0x00000001                ASSERT (((_vector_spacing == 0x0) || (SIZEOF (.vector_42) <= (_vector_spacing << 0x5))), function at exception vector 42 too large)

.vector_43      0x9fc01760        0x8
 *(.vector_43)
 .vector_43     0x9fc01760        0x8 c:/program files (x86)/microchip/xc32/v2.05/bin/bin/../../lib/gcc/pic32mx/4.8.3/../../../../pic32mx/lib\libpic32.a(vector43.o)
                0x9fc01760                __vector_dispatch_43
                0x00000001                ASSERT (((_vector_spacing == 0x0) || (SIZEOF (.vector_43) <= (_vector_spacing << 0x5))), function at exception vector 43 too large)

.vector_44      0x9fc01780        0x8
 *(.vector_44)
 .vector_44     0x9fc01780        0x8 c:/program files (x86)/microchip/xc32/v2.05/bin/bin/../../lib/gcc/pic32mx/4.8.3/../../../../pic32mx/lib\libpic32.a(vector44.o)
                0x9fc01780                __vector_dispatch_44
                0x00000001                ASSERT (((_vector_spacing == 0x0) || (SIZEOF (.vector_44) <= (_vector_spacing << 0x5))), function at exception vector 44 too large)

.vector_45      0x9fc017a0        0x8
 *(.vector_45)
 .vector_45     0x9fc017a0        0x8 build/default/debug/_ext/1171490990/interrupts.o
                0x9fc017a0                __vector_dispatch_45
                0x00000001                ASSERT (((_vector_spacing == 0x0) || (SIZEOF (.vector_45) <= (_vector_spacing << 0x5))), function at exception vector 45 too large)

.vector_46      0x9fc017c0        0x0
 *(.vector_46)
                0x00000001                ASSERT (((_vector_spacing == 0x0) || (SIZEOF (.vector_46) <= (_vector_spacing << 0x5))), function at exception vector 46 too large)

.vector_47      0x9fc017e0        0x0
 *(.vector_47)
                0x00000001                ASSERT (((_vector_spacing == 0x0) || (SIZEOF (.vector_47) <= (_vector_spacing << 0x5))), function at exception vector 47 too large)

.vector_48      0x9fc01800        0x0
 *(.vector_48)
                0x00000001                ASSERT (((_vector_spacing == 0x0) || (SIZEOF (.vector_48) <= (_vector_spacing << 0x5))), function at exception vector 48 too large)

.vector_49      0x9fc01820        0x0
 *(.vector_49)
                0x00000001                ASSERT (((_vector_spacing == 0x0) || (SIZEOF (.vector_49) <= (_vector_spacing << 0x5))), function at exception vector 49 too large)

.vector_50      0x9fc01840        0x0
 *(.vector_50)
                0x00000001                ASSERT (((_vector_spacing == 0x0) || (SIZEOF (.vector_50) <= (_vector_spacing << 0x5))), function at exception vector 50 too large)

.vector_51      0x9fc01860        0x0
 *(.vector_51)
                0x00000001                ASSERT (((_vector_spacing == 0x0) || (SIZEOF (.vector_51) <= (_vector_spacing << 0x5))), function at exception vector 51 too large)

.vector_52      0x9fc01880        0x0
 *(.vector_52)
                0x00000001                ASSERT (((_vector_spacing == 0x0) || (SIZEOF (.vector_52) <= (_vector_spacing << 0x5))), function at exception vector 52 too large)

.vector_53      0x9fc018a0        0x0
 *(.vector_53)
                0x00000001                ASSERT (((_vector_spacing == 0x0) || (SIZEOF (.vector_53) <= (_vector_spacing << 0x5))), function at exception vector 53 too large)

.vector_54      0x9fc018c0        0x0
 *(.vector_54)
                0x00000001                ASSERT (((_vector_spacing == 0x0) || (SIZEOF (.vector_54) <= (_vector_spacing << 0x5))), function at exception vector 54 too large)

.vector_55      0x9fc018e0        0x0
 *(.vector_55)
                0x00000001                ASSERT (((_vector_spacing == 0x0) || (SIZEOF (.vector_55) <= (_vector_spacing << 0x5))), function at exception vector 55 too large)

.vector_56      0x9fc01900        0x0
 *(.vector_56)
                0x00000001                ASSERT (((_vector_spacing == 0x0) || (SIZEOF (.vector_56) <= (_vector_spacing << 0x5))), function at exception vector 56 too large)

.vector_57      0x9fc01920        0x0
 *(.vector_57)
                0x00000001                ASSERT (((_vector_spacing == 0x0) || (SIZEOF (.vector_57) <= (_vector_spacing << 0x5))), function at exception vector 57 too large)

.vector_58      0x9fc01940        0x0
 *(.vector_58)
                0x00000001                ASSERT (((_vector_spacing == 0x0) || (SIZEOF (.vector_58) <= (_vector_spacing << 0x5))), function at exception vector 58 too large)

.vector_59      0x9fc01960        0x0
 *(.vector_59)
                0x00000001                ASSERT (((_vector_spacing == 0x0) || (SIZEOF (.vector_59) <= (_vector_spacing << 0x5))), function at exception vector 59 too large)

.vector_60      0x9fc01980        0x0
 *(.vector_60)
                0x00000001                ASSERT (((_vector_spacing == 0x0) || (SIZEOF (.vector_60) <= (_vector_spacing << 0x5))), function at exception vector 60 too large)

.vector_61      0x9fc019a0        0x0
 *(.vector_61)
                0x00000001                ASSERT (((_vector_spacing == 0x0) || (SIZEOF (.vector_61) <= (_vector_spacing << 0x5))), function at exception vector 61 too large)

.vector_62      0x9fc019c0        0x0
 *(.vector_62)
                0x00000001                ASSERT (((_vector_spacing == 0x0) || (SIZEOF (.vector_62) <= (_vector_spacing << 0x5))), function at exception vector 62 too large)

.vector_63      0x9fc019e0        0x0
 *(.vector_63)
                0x00000001                ASSERT (((_vector_spacing == 0x0) || (SIZEOF (.vector_63) <= (_vector_spacing << 0x5))), function at exception vector 63 too large)

.startup
 *(.startup)

.text           0x9d000000        0x0
 *(.stub .gnu.linkonce.t.*)
 *(.text.*personality*)
 *(.mips16.fn.*)
 *(.mips16.call.*)
 *(.gnu.warning)
                0x9d000000                . = ALIGN (0x4)

.init           0x9d000000        0x0
 *crti.o(.init)
 *crtbegin.o(.init)
 *(EXCLUDE_FILE(*crtn.o *crtend?.o *crtend.o) .init)
 *crtend.o(.init)
 *crtn.o(.init)
                0x9d000000                . = ALIGN (0x4)

.fini           0x9d000000        0x0
 *(.fini)
                0x9d000000                . = ALIGN (0x4)

.preinit_array  0x9d000000        0x0
                0x9d000000                PROVIDE (__preinit_array_start, .)
 *(.preinit_array)
                0x9d000000                PROVIDE (__preinit_array_end, .)
                0x9d000000                . = ALIGN (0x4)

.init_array     0x9d000000        0x0
                0x9d000000                PROVIDE (__init_array_start, .)
 *(SORT(.init_array.*))
 *(.init_array)
                0x9d000000                PROVIDE (__init_array_end, .)
                0x9d000000                . = ALIGN (0x4)

.fini_array     0x9d000000        0x0
                0x9d000000                PROVIDE (__fini_array_start, .)
 *(SORT(.fini_array.*))
 *(.fini_array)
                0x9d000000                PROVIDE (__fini_array_end, .)
                0x9d000000                . = ALIGN (0x4)

.ctors          0x9d000000        0x0
 *crtbegin.o(.ctors)
 *crtbegin?.o(.ctors)
 *(EXCLUDE_FILE(*crtend?.o *crtend.o) .ctors)
 *(SORT(.ctors.*))
 *(.ctors)
                0x9d000000                . = ALIGN (0x4)

.dtors          0x9d000000        0x0
 *crtbegin.o(.dtors)
 *crtbegin?.o(.dtors)
 *(EXCLUDE_FILE(*crtend?.o *crtend.o) .dtors)
 *(SORT(.dtors.*))
 *(.dtors)
                0x9d000000                . = ALIGN (0x4)

.rodata         0x9d000000        0x0
 *(.gnu.linkonce.r.*)
 *(.rodata1)
                0x9d000000                . = ALIGN (0x4)

.sdata2         0x9fc00490        0x0
 *(.sdata2 .sdata2.* .gnu.linkonce.s2.*)
                0x9fc00490                . = ALIGN (0x4)

.sbss2          0x9fc00490        0x0
 *(.sbss2 .sbss2.* .gnu.linkonce.sb2.*)
                0x9fc00490                . = ALIGN (0x4)

.eh_frame_hdr
 *(.eh_frame_hdr)
                0x9fc00490                . = ALIGN (0x4)

.eh_frame
 *(.eh_frame)
                0x9fc00490                . = ALIGN (0x4)

.gcc_except_table
 *(.gcc_except_table .gcc_except_table.*)
                0x9fc00490                . = ALIGN (0x4)

.dbg_data       0xa0000200        0x0
                0xa0000200                . = (. + DEFINED (_DEBUGGER)?0x200:0x0)

.jcr            0xa0000200        0x0
 *(.jcr)
                0xa0000200                . = ALIGN (0x4)

.eh_frame
 *(.eh_frame)
                0xa0000200                . = ALIGN (0x4)

.gcc_except_table
 *(.gcc_except_table .gcc_except_table.*)
                0xa0000200                . = ALIGN (0x4)

.persist        0xa0000200        0x0
                0xa0000200                _persist_begin = .
 *(.persist .persist.*)
                0xa0000200                . = ALIGN (0x4)
                0xa0000200                _persist_end = .

.data           0xa0000200        0x0
 *(.gnu.linkonce.d.*)
 *(.data1)
                0xa0000200                . = ALIGN (0x4)
                0xa0000200                . = .
                0xa00081f0                _gp = (ALIGN (0x10) + 0x7ff0)

.got            0xa0000200        0x0
 *(.got.plt)
 *(.got)
                0xa0000200                . = ALIGN (0x4)

.sdata          0xa0000200       0x28
                0xa0000200                _sdata_begin = .
 *(.sdata .sdata.* .gnu.linkonce.s.*)
 .sdata         0xa0000200        0x8 build/default/debug/_ext/1360937237/D32.o
                0xa0000200                OK_STAT
 .sdata         0xa0000208       0x10 build/default/debug/_ext/1360937237/app_main.o
                0xa0000208                min_fan_on_time
                0xa000020a                fanbounce_Time
                0xa000020c                switch_Hyst
                0xa0000210                switch_Temp
                0xa0000214                chiller_TimerMAX
                0xa0000216                system_Poll
 .sdata         0xa0000218        0xc build/default/debug/_ext/1548692632/Athena.o
                0xa0000218                stageThreshold
                0xa000021c                kDefaultAthenaTemp
                0xa0000220                kAthenaOnDelay
 .sdata         0xa0000224        0x1 build/default/debug/_ext/1548692632/thermal_states.o
                0xa0000224                fluid_switch_status
                0xa0000228                . = ALIGN (0x4)
 *fill*         0xa0000225        0x3 
                0xa0000228                _sdata_end = .

.lit8
 *(.lit8)

.lit4
 *(.lit4)
                0xa0000228                . = ALIGN (0x4)
                0xa0000228                _data_end = .
                0xa0000228                _bss_begin = .

.sbss           0xa0000228       0x6c
                0xa0000228                _sbss_begin = .
 *(.dynsbss)
 *(.sbss .sbss.* .gnu.linkonce.sb.*)
 .sbss          0xa0000228        0x8 build/default/debug/_ext/1171490990/exceptions.o
 .sbss          0xa0000230        0x2 build/default/debug/_ext/1360937237/D32.o
                0xa0000230                cmd_get
                0xa0000231                cmd_put
 *fill*         0xa0000232        0x2 
 .sbss          0xa0000234       0x2c build/default/debug/_ext/1360937237/app_main.o
                0xa0000234                wait_delay
                0xa0000238                dummy
                0xa000023c                newTemp
                0xa0000240                stageTemp
                0xa0000244                Fan_timer
                0xa0000248                system_timer
                0xa000024c                core_timer
                0xa0000250                FHT
                0xa0000252                thermal_mode
                0xa0000254                force_fan_on
                0xa0000256                fan_stat
                0xa0000258                glError
 .sbss          0xa0000260        0xc build/default/debug/_ext/1548692632/Athena.o
                0xa0000260                n
 .sbss          0xa000026c        0x3 build/default/debug/_ext/1548692632/thermal_states.o
                0xa000026c                rst_switch_status
                0xa000026d                temp_overheat_status
                0xa000026e                thermal_state
 *fill*         0xa000026f        0x1 
 .sbss          0xa0000270        0x4 build/default/debug/_ext/1360937237/thermal_commands.o
                0xa0000270                counter
 *(.scommon)
 .scommon       0xa0000274        0x2 build/default/debug/_ext/308758920/usb_device_cdc.o
                0xa0000274                gUSBDeviceCdcCommonDataObj
 *fill*         0xa0000276        0x2 
 .scommon       0xa0000278        0x8 build/default/debug/_ext/1171490990/initialization.o
                0xa0000278                sysObj
 .scommon       0xa0000280       0x10 build/default/debug/_ext/1360937237/D32.o
                0xa0000280                txBuffer_get
                0xa0000281                rxBuffer_put
                0xa0000284                global_data
                0xa0000288                rxBuffer_get
                0xa0000289                txBuffer_put
                0xa000028c                newTempSet
 .scommon       0xa0000290        0x0 build/default/debug/_ext/1360937237/app_main.o
 .scommon       0xa0000290        0x4 build/default/debug/_ext/1548692632/Athena.o
                0xa0000290                oldNLSetTemp
 .scommon       0xa0000294        0x0 build/default/debug/_ext/1548692632/thermal_states.o
 .scommon       0xa0000294        0x0 build/default/debug/_ext/1360937237/thermal_commands.o
                0xa0000294                _sbss_end = .
                0xa0000294                . = ALIGN (0x4)

.bss            0xa0000400      0x8ec
 *(.dynbss)
 *(COMMON)
 COMMON         0xa0000400       0xf8 build/default/debug/_ext/2128569739/drv_usbfs.o
                0xa0000400                gDrvUSBGroup
 COMMON         0xa00004f8       0x10 build/default/debug/_ext/1249264884/plib_coretimer.o
                0xa00004f8                coreTmr
 COMMON         0xa0000508       0xbc build/default/debug/_ext/308758920/usb_device_cdc.o
                0xa0000508                gUSBDeviceCDCSerialStateResponse
                0xa0000514                gUSBDeviceCDCIRP
                0xa0000580                gUSBDeviceCDCInstance
 *fill*         0xa00005c4       0x3c 
 COMMON         0xa0000600       0x80 build/default/debug/_ext/1171490990/initialization.o
                0xa0000600                endPointTable1
 COMMON         0xa0000680      0x43c build/default/debug/_ext/1360937237/app.o
                0xa0000680                appData
                0xa00006bc                cdcReadBuffer
                0xa00008bc                cdcWriteBuffer
 COMMON         0xa0000abc      0x180 build/default/debug/_ext/1360937237/D32.o
                0xa0000abc                rxBuffer
                0xa0000b3c                txBuffer
                0xa0000bbc                command_to_process
 COMMON         0xa0000c3c       0x2e build/default/debug/_ext/1548692632/Athena.o
                0xa0000c3c                athenaLUData
                0xa0000c48                athenaReadData
                0xa0000c5c                athenaWriteData
 *fill*         0xa0000c6a        0x2 
 COMMON         0xa0000c6c       0x80 build/default/debug/_ext/1360937237/thermal_commands.o
                0xa0000c6c                TX1_Buffer
                0xa0000cec                . = ALIGN ((. != 0x0)?0x4:0x1)
                0xa0000cec                . = ALIGN (0x4)
                0xa0000cec                _end = .
                0xa0000cec                _bss_end = .
                0x00008000                _bmxdudba_address = 0x8000
                0x00008000                _bmxdupba_address = 0x8000

/DISCARD/
 *(.pdr)
 *(.rel.dyn)
 *(.note.GNU-stack)
 *(.note.GNU-stack)
 *(.gnu_debuglink)
 *(.gnu.lto_*)
 *(.discard)

.gptab.sdata
 *(.gptab.data)
 *(.gptab.sdata)

.gptab.sbss
 *(.gptab.bss)
 *(.gptab.sbss)

.mdebug.abi32   0x00000000        0x0
 *(.mdebug.abi32)
 .mdebug.abi32  0x00000000        0x0 c:/program files (x86)/microchip/xc32/v2.05/bin/bin/../../lib/gcc/pic32mx/4.8.3/../../../../pic32mx/lib\software-debug-break.o
 .mdebug.abi32  0x00000000        0x0 build/default/debug/_ext/2128569739/drv_usbfs.o
 .mdebug.abi32  0x00000000        0x0 build/default/debug/_ext/2128569739/drv_usbfs_device.o
 .mdebug.abi32  0x00000000        0x0 build/default/debug/_ext/60165520/plib_clk.o
 .mdebug.abi32  0x00000000        0x0 build/default/debug/_ext/1249264884/plib_coretimer.o
 .mdebug.abi32  0x00000000        0x0 build/default/debug/_ext/1865200349/plib_evic.o
 .mdebug.abi32  0x00000000        0x0 build/default/debug/_ext/1865254177/plib_gpio.o
 .mdebug.abi32  0x00000000        0x0 build/default/debug/_ext/1865657120/plib_uart1.o
 .mdebug.abi32  0x00000000        0x0 build/default/debug/_ext/1865657120/plib_uart2.o
 .mdebug.abi32  0x00000000        0x0 build/default/debug/_ext/163028504/xc32_monitor.o
 .mdebug.abi32  0x00000000        0x0 build/default/debug/_ext/1881668453/sys_int.o
 .mdebug.abi32  0x00000000        0x0 build/default/debug/_ext/308758920/usb_device.o
 .mdebug.abi32  0x00000000        0x0 build/default/debug/_ext/308758920/usb_device_cdc.o
 .mdebug.abi32  0x00000000        0x0 build/default/debug/_ext/308758920/usb_device_cdc_acm.o
 .mdebug.abi32  0x00000000        0x0 build/default/debug/_ext/1171490990/initialization.o
 .mdebug.abi32  0x00000000        0x0 build/default/debug/_ext/1171490990/interrupts.o
 .mdebug.abi32  0x00000000        0x0 build/default/debug/_ext/1171490990/exceptions.o
 .mdebug.abi32  0x00000000        0x0 build/default/debug/_ext/1171490990/usb_device_init_data.o
 .mdebug.abi32  0x00000000        0x0 build/default/debug/_ext/1171490990/tasks.o
 .mdebug.abi32  0x00000000        0x0 build/default/debug/_ext/1360937237/main.o
 .mdebug.abi32  0x00000000        0x0 build/default/debug/_ext/1360937237/app.o
 .mdebug.abi32  0x00000000        0x0 build/default/debug/_ext/1360937237/D32.o
 .mdebug.abi32  0x00000000        0x0 build/default/debug/_ext/1360937237/app_main.o
 .mdebug.abi32  0x00000000        0x0 build/default/debug/_ext/1548692632/Athena.o
 .mdebug.abi32  0x00000000        0x0 build/default/debug/_ext/1548692632/thermal_states.o
 .mdebug.abi32  0x00000000        0x0 build/default/debug/_ext/1360937237/thermal_commands.o
 .mdebug.abi32  0x00000000        0x0 c:/program files (x86)/microchip/xc32/v2.05/bin/bin/../../lib/gcc/pic32mx/4.8.3/../../../../pic32mx/lib\libpic32.a(default-on-reset.o)
 .mdebug.abi32  0x00000000        0x0 c:/program files (x86)/microchip/xc32/v2.05/bin/bin/../../lib/gcc/pic32mx/4.8.3/../../../../pic32mx/lib\libpic32.a(default-on-bootstrap.o)
 .mdebug.abi32  0x00000000        0x0 c:/program files (x86)/microchip/xc32/v2.05/bin/bin/../../lib/gcc/pic32mx/4.8.3/../../../../pic32mx/lib\libpic32.a(defaultinterrupt.o)
 .mdebug.abi32  0x00000000        0x0 c:/program files (x86)/microchip/xc32/v2.05/bin/bin/../../lib/gcc/pic32mx/4.8.3/../../../../pic32mx/lib\libc.a(atoi.o)
 .mdebug.abi32  0x00000000        0x0 c:/program files (x86)/microchip/xc32/v2.05/bin/bin/../../lib/gcc/pic32mx/4.8.3/../../../../pic32mx/lib\libc.a(ctype.o)
 .mdebug.abi32  0x00000000        0x0 c:/program files (x86)/microchip/xc32/v2.05/bin/bin/../../lib/gcc/pic32mx/4.8.3/../../../../pic32mx/lib\libc.a(ctypef.o)
 .mdebug.abi32  0x00000000        0x0 c:/program files (x86)/microchip/xc32/v2.05/bin/bin/../../lib/gcc/pic32mx/4.8.3/../../../../pic32mx/lib\libc.a(atof.o)
 .mdebug.abi32  0x00000000        0x0 c:/program files (x86)/microchip/xc32/v2.05/bin/bin/../../lib/gcc/pic32mx/4.8.3/../../../../pic32mx/lib\libc.a(sprintf_cdfFnopuxX.eo)
 .mdebug.abi32  0x00000000        0x0 c:/program files (x86)/microchip/xc32/v2.05/bin/bin/../../lib/gcc/pic32mx/4.8.3/../../../../pic32mx/lib\libc.a(strtof.o)
 .mdebug.abi32  0x00000000        0x0 c:/program files (x86)/microchip/xc32/v2.05/bin/bin/../../lib/gcc/pic32mx/4.8.3/../../../../pic32mx/lib\libc.a(doprnt_cdfFnopuxX.eo)
 .mdebug.abi32  0x00000000        0x0 c:/program files (x86)/microchip/xc32/v2.05/bin/bin/../../lib/gcc/pic32mx/4.8.3/../../../../pic32mx/lib\libc.a(_fputc_simple.o)
 .mdebug.abi32  0x00000000        0x0 c:/program files (x86)/microchip/xc32/v2.05/bin/bin/../../lib/gcc/pic32mx/4.8.3/../../../../pic32mx/lib\libc.a(ldpowers.o)
 .mdebug.abi32  0x00000000        0x0 c:/program files (x86)/microchip/xc32/v2.05/bin/bin/../../lib/gcc/pic32mx/4.8.3/../../../../pic32mx/lib\libc.a(_iob.o)
 .mdebug.abi32  0x00000000        0x0 c:/program files (x86)/microchip/xc32/v2.05/bin/bin/../../lib/gcc/pic32mx/4.8.3/../../../../pic32mx/lib\libc.a(_flsbuf_simple.o)
 .mdebug.abi32  0x00000000        0x0 c:/program files (x86)/microchip/xc32/v2.05/bin/bin/../../lib/gcc/pic32mx/4.8.3/../../../../pic32mx/lib\libm.a(__strtof.o)
 .mdebug.abi32  0x00000000        0x0 c:/program files (x86)/microchip/xc32/v2.05/bin/bin/../../lib/gcc/pic32mx/4.8.3/../../../../pic32mx/lib\libe.a(_fixunsdfdi.o)
 .mdebug.abi32  0x00000000        0x0 c:/program files (x86)/microchip/xc32/v2.05/bin/bin/../../lib/gcc/pic32mx/4.8.3/../../../../pic32mx/lib\libe.a(_orderdf2.o)
 .mdebug.abi32  0x00000000        0x0 c:/program files (x86)/microchip/xc32/v2.05/bin/bin/../../lib/gcc/pic32mx/4.8.3/../../../../pic32mx/lib\libe.a(_ldexpf.o)
 .mdebug.abi32  0x00000000        0x0 c:/program files (x86)/microchip/xc32/v2.05/bin/bin/../../lib/gcc/pic32mx/4.8.3/../../../../pic32mx/lib\libe.a(_fixdfdi.o)
 .mdebug.abi32  0x00000000        0x0 c:/program files (x86)/microchip/xc32/v2.05/bin/bin/../../lib/gcc/pic32mx/4.8.3\libgcc.a(_floatundidf.o)
 .mdebug.abi32  0x00000000        0x0 c:/program files (x86)/microchip/xc32/v2.05/bin/bin/../../lib/gcc/pic32mx/4.8.3\libgcc.a(_udivdi3.o)
 .mdebug.abi32  0x00000000        0x0 c:/program files (x86)/microchip/xc32/v2.05/bin/bin/../../lib/gcc/pic32mx/4.8.3\libgcc.a(_umoddi3.o)
 .mdebug.abi32  0x00000000        0x0 c:/program files (x86)/microchip/xc32/v2.05/bin/bin/../../lib/gcc/pic32mx/4.8.3\libgcc.a(floatunsidf.o)
 .mdebug.abi32  0x00000000        0x0 c:/program files (x86)/microchip/xc32/v2.05/bin/bin/../../lib/gcc/pic32mx/4.8.3/../../../../pic32mx/lib\libpic32.a(write.o)
 .mdebug.abi32  0x00000000        0x0 c:/program files (x86)/microchip/xc32/v2.05/bin/bin/../../lib/gcc/pic32mx/4.8.3/../../../../pic32mx/lib\libpic32.a(errno.o)

.mdebug.abiN32
 *(.mdebug.abiN32)

.mdebug.abi64
 *(.mdebug.abi64)

.mdebug.abiO64
 *(.mdebug.abiO64)

.mdebug.eabi32
 *(.mdebug.eabi32)

.mdebug.eabi64
 *(.mdebug.eabi64)

.gcc_compiled_long32
 *(.gcc_compiled_long32)

.gcc_compiled_long64
 *(.gcc_compiled_long64)

.stab
 *(.stab)

.stabstr
 *(.stabstr)

.stab.excl
 *(.stab.excl)

.stab.exclstr
 *(.stab.exclstr)

.stab.index
 *(.stab.index)

.stab.indexstr
 *(.stab.indexstr)

.comment        0x00000000      0x2d0
 *(.comment)
 .comment       0x00000000       0x3c c:/program files (x86)/microchip/xc32/v2.05/bin/bin/../../lib/gcc/pic32mx/4.8.3/../../../../pic32mx/lib\software-debug-break.o
                                 0x3d (size before relaxing)
 .comment       0x00000000       0x3d build/default/debug/_ext/2128569739/drv_usbfs.o
 .comment       0x00000000       0x3d build/default/debug/_ext/2128569739/drv_usbfs_device.o
 .comment       0x00000000       0x3d build/default/debug/_ext/60165520/plib_clk.o
 .comment       0x00000000       0x3d build/default/debug/_ext/1249264884/plib_coretimer.o
 .comment       0x00000000       0x3d build/default/debug/_ext/1865200349/plib_evic.o
 .comment       0x00000000       0x3d build/default/debug/_ext/1865254177/plib_gpio.o
 .comment       0x00000000       0x3d build/default/debug/_ext/1865657120/plib_uart1.o
 .comment       0x00000000       0x3d build/default/debug/_ext/1865657120/plib_uart2.o
 .comment       0x00000000       0x3d build/default/debug/_ext/163028504/xc32_monitor.o
 .comment       0x00000000       0x3d build/default/debug/_ext/1881668453/sys_int.o
 .comment       0x00000000       0x3d build/default/debug/_ext/308758920/usb_device.o
 .comment       0x00000000       0x3d build/default/debug/_ext/308758920/usb_device_cdc.o
 .comment       0x00000000       0x3d build/default/debug/_ext/308758920/usb_device_cdc_acm.o
 .comment       0x00000000       0x3d build/default/debug/_ext/1171490990/initialization.o
 .comment       0x00000000       0x3d build/default/debug/_ext/1171490990/interrupts.o
 .comment       0x00000000       0x3d build/default/debug/_ext/1171490990/exceptions.o
 .comment       0x00000000       0x3d build/default/debug/_ext/1171490990/usb_device_init_data.o
 .comment       0x00000000       0x3d build/default/debug/_ext/1171490990/tasks.o
 .comment       0x00000000       0x3d build/default/debug/_ext/1360937237/main.o
 .comment       0x00000000       0x3d build/default/debug/_ext/1360937237/app.o
 .comment       0x00000000       0x3d build/default/debug/_ext/1360937237/D32.o
 .comment       0x00000000       0x3d build/default/debug/_ext/1360937237/app_main.o
 .comment       0x00000000       0x3d build/default/debug/_ext/1548692632/Athena.o
 .comment       0x00000000       0x3d build/default/debug/_ext/1548692632/thermal_states.o
 .comment       0x00000000       0x3d build/default/debug/_ext/1360937237/thermal_commands.o
 .comment       0x0000003c       0x19 c:/program files (x86)/microchip/xc32/v2.05/bin/bin/../../lib/gcc/pic32mx/4.8.3/../../../../pic32mx/lib\libpic32.a(strcmp.o)
                                 0x1a (size before relaxing)
 .comment       0x00000000       0x3d c:/program files (x86)/microchip/xc32/v2.05/bin/bin/../../lib/gcc/pic32mx/4.8.3/../../../../pic32mx/lib\libpic32.a(default-on-reset.o)
 .comment       0x00000000       0x3d c:/program files (x86)/microchip/xc32/v2.05/bin/bin/../../lib/gcc/pic32mx/4.8.3/../../../../pic32mx/lib\libpic32.a(default-on-bootstrap.o)
 .comment       0x00000000       0x3d c:/program files (x86)/microchip/xc32/v2.05/bin/bin/../../lib/gcc/pic32mx/4.8.3/../../../../pic32mx/lib\libpic32.a(defaultinterrupt.o)
 .comment       0x00000000       0x3d c:/program files (x86)/microchip/xc32/v2.05/bin/bin/../../lib/gcc/pic32mx/4.8.3/../../../../pic32mx/lib\libc.a(atoi.o)
 .comment       0x00000055       0x4e c:/program files (x86)/microchip/xc32/v2.05/bin/bin/../../lib/gcc/pic32mx/4.8.3/../../../../pic32mx/lib\libc.a(ctype.o)
                                 0x8b (size before relaxing)
 .comment       0x000000a3       0x4f c:/program files (x86)/microchip/xc32/v2.05/bin/bin/../../lib/gcc/pic32mx/4.8.3/../../../../pic32mx/lib\libc.a(ctypef.o)
                                 0x8c (size before relaxing)
 .comment       0x00000000       0x3d c:/program files (x86)/microchip/xc32/v2.05/bin/bin/../../lib/gcc/pic32mx/4.8.3/../../../../pic32mx/lib\libc.a(atof.o)
 .comment       0x00000000       0x3d c:/program files (x86)/microchip/xc32/v2.05/bin/bin/../../lib/gcc/pic32mx/4.8.3/../../../../pic32mx/lib\libc.a(sprintf_cdfFnopuxX.eo)
 .comment       0x00000000       0x3d c:/program files (x86)/microchip/xc32/v2.05/bin/bin/../../lib/gcc/pic32mx/4.8.3/../../../../pic32mx/lib\libc.a(strtof.o)
 .comment       0x00000000       0x3d c:/program files (x86)/microchip/xc32/v2.05/bin/bin/../../lib/gcc/pic32mx/4.8.3/../../../../pic32mx/lib\libc.a(doprnt_cdfFnopuxX.eo)
 .comment       0x00000000       0x3d c:/program files (x86)/microchip/xc32/v2.05/bin/bin/../../lib/gcc/pic32mx/4.8.3/../../../../pic32mx/lib\libc.a(_fputc_simple.o)
 .comment       0x00000000       0x3d c:/program files (x86)/microchip/xc32/v2.05/bin/bin/../../lib/gcc/pic32mx/4.8.3/../../../../pic32mx/lib\libc.a(ldpowers.o)
 .comment       0x00000000       0x3d c:/program files (x86)/microchip/xc32/v2.05/bin/bin/../../lib/gcc/pic32mx/4.8.3/../../../../pic32mx/lib\libc.a(_iob.o)
 .comment       0x00000000       0x3d c:/program files (x86)/microchip/xc32/v2.05/bin/bin/../../lib/gcc/pic32mx/4.8.3/../../../../pic32mx/lib\libc.a(_flsbuf_simple.o)
 .comment       0x000000f2       0x9d c:/program files (x86)/microchip/xc32/v2.05/bin/bin/../../lib/gcc/pic32mx/4.8.3/../../../../pic32mx/lib\libm.a(__strtof.o)
                                 0xda (size before relaxing)
 .comment       0x0000018f       0x51 c:/program files (x86)/microchip/xc32/v2.05/bin/bin/../../lib/gcc/pic32mx/4.8.3/../../../../pic32mx/lib\libe.a(_fixunsdfdi.o)
                                 0xdc (size before relaxing)
 .comment       0x000001e0       0x50 c:/program files (x86)/microchip/xc32/v2.05/bin/bin/../../lib/gcc/pic32mx/4.8.3/../../../../pic32mx/lib\libe.a(_orderdf2.o)
                                 0xdb (size before relaxing)
 .comment       0x00000230       0x50 c:/program files (x86)/microchip/xc32/v2.05/bin/bin/../../lib/gcc/pic32mx/4.8.3/../../../../pic32mx/lib\libe.a(_ldexpf.o)
                                 0xdb (size before relaxing)
 .comment       0x00000280       0x50 c:/program files (x86)/microchip/xc32/v2.05/bin/bin/../../lib/gcc/pic32mx/4.8.3/../../../../pic32mx/lib\libe.a(_fixdfdi.o)
                                 0xdb (size before relaxing)
 .comment       0x00000000       0x3d c:/program files (x86)/microchip/xc32/v2.05/bin/bin/../../lib/gcc/pic32mx/4.8.3\libgcc.a(_floatundidf.o)
 .comment       0x00000000       0x3d c:/program files (x86)/microchip/xc32/v2.05/bin/bin/../../lib/gcc/pic32mx/4.8.3\libgcc.a(_udivdi3.o)
 .comment       0x00000000       0x3d c:/program files (x86)/microchip/xc32/v2.05/bin/bin/../../lib/gcc/pic32mx/4.8.3\libgcc.a(_umoddi3.o)
 .comment       0x00000000       0x3d c:/program files (x86)/microchip/xc32/v2.05/bin/bin/../../lib/gcc/pic32mx/4.8.3\libgcc.a(floatunsidf.o)
 .comment       0x00000000       0x3d c:/program files (x86)/microchip/xc32/v2.05/bin/bin/../../lib/gcc/pic32mx/4.8.3/../../../../pic32mx/lib\libpic32.a(write.o)
 .comment       0x00000000       0x3d c:/program files (x86)/microchip/xc32/v2.05/bin/bin/../../lib/gcc/pic32mx/4.8.3/../../../../pic32mx/lib\libpic32.a(errno.o)

.debug
 *.elf(.debug)
 *(.debug)

.line
 *.elf(.line)
 *(.line)

.debug_srcinfo
 *.elf(.debug_srcinfo)
 *(.debug_srcinfo)

.debug_sfnames
 *.elf(.debug_sfnames)
 *(.debug_sfnames)

.debug_aranges  0x00000000      0xd00
 *.elf(.debug_aranges)
 *(.debug_aranges)
 .debug_aranges
                0x00000000       0x20 c:/program files (x86)/microchip/xc32/v2.05/bin/bin/../../lib/gcc/pic32mx/4.8.3/../../../../pic32mx/lib\software-debug-break.o
 .debug_aranges
                0x00000020       0x68 build/default/debug/_ext/2128569739/drv_usbfs.o
 .debug_aranges
                0x00000088       0xc0 build/default/debug/_ext/2128569739/drv_usbfs_device.o
 .debug_aranges
                0x00000148       0x20 build/default/debug/_ext/60165520/plib_clk.o
 .debug_aranges
                0x00000168       0x60 build/default/debug/_ext/1249264884/plib_coretimer.o
 .debug_aranges
                0x000001c8       0x68 build/default/debug/_ext/1865200349/plib_evic.o
 .debug_aranges
                0x00000230       0x60 build/default/debug/_ext/1865254177/plib_gpio.o
 .debug_aranges
                0x00000290       0x80 build/default/debug/_ext/1865657120/plib_uart1.o
 .debug_aranges
                0x00000310       0x80 build/default/debug/_ext/1865657120/plib_uart2.o
 .debug_aranges
                0x00000390       0x28 build/default/debug/_ext/163028504/xc32_monitor.o
 .debug_aranges
                0x000003b8       0x40 build/default/debug/_ext/1881668453/sys_int.o
 .debug_aranges
                0x000003f8      0x1a0 build/default/debug/_ext/308758920/usb_device.o
 .debug_aranges
                0x00000598       0x88 build/default/debug/_ext/308758920/usb_device_cdc.o
 .debug_aranges
                0x00000620       0x20 build/default/debug/_ext/308758920/usb_device_cdc_acm.o
 .debug_aranges
                0x00000640       0x20 build/default/debug/_ext/1171490990/initialization.o
 .debug_aranges
                0x00000660       0x38 build/default/debug/_ext/1171490990/interrupts.o
 .debug_aranges
                0x00000698       0x28 build/default/debug/_ext/1171490990/exceptions.o
 .debug_aranges
                0x000006c0       0x18 build/default/debug/_ext/1171490990/usb_device_init_data.o
 .debug_aranges
                0x000006d8       0x20 build/default/debug/_ext/1171490990/tasks.o
 .debug_aranges
                0x000006f8       0x28 build/default/debug/_ext/1360937237/main.o
 .debug_aranges
                0x00000720       0x48 build/default/debug/_ext/1360937237/app.o
 .debug_aranges
                0x00000768       0x90 build/default/debug/_ext/1360937237/D32.o
 .debug_aranges
                0x000007f8       0x80 build/default/debug/_ext/1360937237/app_main.o
 .debug_aranges
                0x00000878       0x60 build/default/debug/_ext/1548692632/Athena.o
 .debug_aranges
                0x000008d8       0xa8 build/default/debug/_ext/1548692632/thermal_states.o
 .debug_aranges
                0x00000980       0x50 build/default/debug/_ext/1360937237/thermal_commands.o
 .debug_aranges
                0x000009d0       0x20 c:/program files (x86)/microchip/xc32/v2.05/bin/bin/../../lib/gcc/pic32mx/4.8.3/../../../../pic32mx/lib\libpic32.a(default-on-reset.o)
 .debug_aranges
                0x000009f0       0x20 c:/program files (x86)/microchip/xc32/v2.05/bin/bin/../../lib/gcc/pic32mx/4.8.3/../../../../pic32mx/lib\libpic32.a(default-on-bootstrap.o)
 .debug_aranges
                0x00000a10       0x20 c:/program files (x86)/microchip/xc32/v2.05/bin/bin/../../lib/gcc/pic32mx/4.8.3/../../../../pic32mx/lib\libpic32.a(defaultinterrupt.o)
 .debug_aranges
                0x00000a30       0x20 c:/program files (x86)/microchip/xc32/v2.05/bin/bin/../../lib/gcc/pic32mx/4.8.3/../../../../pic32mx/lib\libc.a(atoi.o)
 .debug_aranges
                0x00000a50       0xa0 c:/program files (x86)/microchip/xc32/v2.05/bin/bin/../../lib/gcc/pic32mx/4.8.3/../../../../pic32mx/lib\libc.a(ctypef.o)
 .debug_aranges
                0x00000af0       0x20 c:/program files (x86)/microchip/xc32/v2.05/bin/bin/../../lib/gcc/pic32mx/4.8.3/../../../../pic32mx/lib\libc.a(atof.o)
 .debug_aranges
                0x00000b10       0x20 c:/program files (x86)/microchip/xc32/v2.05/bin/bin/../../lib/gcc/pic32mx/4.8.3/../../../../pic32mx/lib\libc.a(sprintf_cdfFnopuxX.eo)
 .debug_aranges
                0x00000b30       0x28 c:/program files (x86)/microchip/xc32/v2.05/bin/bin/../../lib/gcc/pic32mx/4.8.3/../../../../pic32mx/lib\libc.a(strtof.o)
 .debug_aranges
                0x00000b58       0x28 c:/program files (x86)/microchip/xc32/v2.05/bin/bin/../../lib/gcc/pic32mx/4.8.3/../../../../pic32mx/lib\libc.a(doprnt_cdfFnopuxX.eo)
 .debug_aranges
                0x00000b80       0x20 c:/program files (x86)/microchip/xc32/v2.05/bin/bin/../../lib/gcc/pic32mx/4.8.3/../../../../pic32mx/lib\libc.a(_fputc_simple.o)
 .debug_aranges
                0x00000ba0       0x20 c:/program files (x86)/microchip/xc32/v2.05/bin/bin/../../lib/gcc/pic32mx/4.8.3/../../../../pic32mx/lib\libc.a(_flsbuf_simple.o)
 .debug_aranges
                0x00000bc0       0x20 c:/program files (x86)/microchip/xc32/v2.05/bin/bin/../../lib/gcc/pic32mx/4.8.3/../../../../pic32mx/lib\libm.a(__strtof.o)
 .debug_aranges
                0x00000be0       0x20 c:/program files (x86)/microchip/xc32/v2.05/bin/bin/../../lib/gcc/pic32mx/4.8.3/../../../../pic32mx/lib\libe.a(_fixunsdfdi.o)
 .debug_aranges
                0x00000c00       0x20 c:/program files (x86)/microchip/xc32/v2.05/bin/bin/../../lib/gcc/pic32mx/4.8.3/../../../../pic32mx/lib\libe.a(_orderdf2.o)
 .debug_aranges
                0x00000c20       0x20 c:/program files (x86)/microchip/xc32/v2.05/bin/bin/../../lib/gcc/pic32mx/4.8.3/../../../../pic32mx/lib\libe.a(_ldexpf.o)
 .debug_aranges
                0x00000c40       0x20 c:/program files (x86)/microchip/xc32/v2.05/bin/bin/../../lib/gcc/pic32mx/4.8.3/../../../../pic32mx/lib\libe.a(_fixdfdi.o)
 .debug_aranges
                0x00000c60       0x20 c:/program files (x86)/microchip/xc32/v2.05/bin/bin/../../lib/gcc/pic32mx/4.8.3\libgcc.a(_floatundidf.o)
 .debug_aranges
                0x00000c80       0x20 c:/program files (x86)/microchip/xc32/v2.05/bin/bin/../../lib/gcc/pic32mx/4.8.3\libgcc.a(_udivdi3.o)
 .debug_aranges
                0x00000ca0       0x20 c:/program files (x86)/microchip/xc32/v2.05/bin/bin/../../lib/gcc/pic32mx/4.8.3\libgcc.a(_umoddi3.o)
 .debug_aranges
                0x00000cc0       0x20 c:/program files (x86)/microchip/xc32/v2.05/bin/bin/../../lib/gcc/pic32mx/4.8.3\libgcc.a(floatunsidf.o)
 .debug_aranges
                0x00000ce0       0x20 c:/program files (x86)/microchip/xc32/v2.05/bin/bin/../../lib/gcc/pic32mx/4.8.3/../../../../pic32mx/lib\libpic32.a(write.o)

.debug_pubnames
 *.elf(.debug_pubnames)
 *(.debug_pubnames)

.debug_info     0x00000000    0x2737d
 *.elf(.debug_info .gnu.linkonce.wi.*)
 *(.debug_info .gnu.linkonce.wi.*)
 .debug_info    0x00000000       0xe2 c:/program files (x86)/microchip/xc32/v2.05/bin/bin/../../lib/gcc/pic32mx/4.8.3/../../../../pic32mx/lib\software-debug-break.o
 .debug_info    0x000000e2     0x40a7 build/default/debug/_ext/2128569739/drv_usbfs.o
 .debug_info    0x00004189     0x7334 build/default/debug/_ext/2128569739/drv_usbfs_device.o
 .debug_info    0x0000b4bd      0x4d4 build/default/debug/_ext/60165520/plib_clk.o
 .debug_info    0x0000b991      0x75a build/default/debug/_ext/1249264884/plib_coretimer.o
 .debug_info    0x0000c0eb      0x9b6 build/default/debug/_ext/1865200349/plib_evic.o
 .debug_info    0x0000caa1      0x538 build/default/debug/_ext/1865254177/plib_gpio.o
 .debug_info    0x0000cfd9      0x8aa build/default/debug/_ext/1865657120/plib_uart1.o
 .debug_info    0x0000d883      0x8aa build/default/debug/_ext/1865657120/plib_uart2.o
 .debug_info    0x0000e12d      0x135 build/default/debug/_ext/163028504/xc32_monitor.o
 .debug_info    0x0000e262      0x918 build/default/debug/_ext/1881668453/sys_int.o
 .debug_info    0x0000eb7a     0x5925 build/default/debug/_ext/308758920/usb_device.o
 .debug_info    0x0001449f     0x3c7b build/default/debug/_ext/308758920/usb_device_cdc.o
 .debug_info    0x0001811a     0x13ae build/default/debug/_ext/308758920/usb_device_cdc_acm.o
 .debug_info    0x000194c8     0x1cec build/default/debug/_ext/1171490990/initialization.o
 .debug_info    0x0001b1b4      0x26b build/default/debug/_ext/1171490990/interrupts.o
 .debug_info    0x0001b41f      0x8df build/default/debug/_ext/1171490990/exceptions.o
 .debug_info    0x0001bcfe     0x3087 build/default/debug/_ext/1171490990/usb_device_init_data.o
 .debug_info    0x0001ed85      0x294 build/default/debug/_ext/1171490990/tasks.o
 .debug_info    0x0001f019      0x9fc build/default/debug/_ext/1360937237/main.o
 .debug_info    0x0001fa15     0x1cec build/default/debug/_ext/1360937237/app.o
 .debug_info    0x00021701      0x863 build/default/debug/_ext/1360937237/D32.o
 .debug_info    0x00021f64      0xdd2 build/default/debug/_ext/1360937237/app_main.o
 .debug_info    0x00022d36      0xc4e build/default/debug/_ext/1548692632/Athena.o
 .debug_info    0x00023984      0xd51 build/default/debug/_ext/1548692632/thermal_states.o
 .debug_info    0x000246d5      0xad6 build/default/debug/_ext/1360937237/thermal_commands.o
 .debug_info    0x000251ab       0xcc c:/program files (x86)/microchip/xc32/v2.05/bin/bin/../../lib/gcc/pic32mx/4.8.3/../../../../pic32mx/lib\libpic32.a(default-on-reset.o)
 .debug_info    0x00025277       0xd4 c:/program files (x86)/microchip/xc32/v2.05/bin/bin/../../lib/gcc/pic32mx/4.8.3/../../../../pic32mx/lib\libpic32.a(default-on-bootstrap.o)
 .debug_info    0x0002534b       0xe6 c:/program files (x86)/microchip/xc32/v2.05/bin/bin/../../lib/gcc/pic32mx/4.8.3/../../../../pic32mx/lib\libpic32.a(defaultinterrupt.o)
 .debug_info    0x00025431       0xc0 c:/program files (x86)/microchip/xc32/v2.05/bin/bin/../../lib/gcc/pic32mx/4.8.3/../../../../pic32mx/lib\libc.a(atoi.o)
 .debug_info    0x000254f1      0x238 c:/program files (x86)/microchip/xc32/v2.05/bin/bin/../../lib/gcc/pic32mx/4.8.3/../../../../pic32mx/lib\libc.a(ctypef.o)
 .debug_info    0x00025729       0xc0 c:/program files (x86)/microchip/xc32/v2.05/bin/bin/../../lib/gcc/pic32mx/4.8.3/../../../../pic32mx/lib\libc.a(atof.o)
 .debug_info    0x000257e9       0xd2 c:/program files (x86)/microchip/xc32/v2.05/bin/bin/../../lib/gcc/pic32mx/4.8.3/../../../../pic32mx/lib\libc.a(sprintf_cdfFnopuxX.eo)
 .debug_info    0x000258bb       0xf3 c:/program files (x86)/microchip/xc32/v2.05/bin/bin/../../lib/gcc/pic32mx/4.8.3/../../../../pic32mx/lib\libc.a(strtof.o)
 .debug_info    0x000259ae       0xfa c:/program files (x86)/microchip/xc32/v2.05/bin/bin/../../lib/gcc/pic32mx/4.8.3/../../../../pic32mx/lib\libc.a(doprnt_cdfFnopuxX.eo)
 .debug_info    0x00025aa8       0xc2 c:/program files (x86)/microchip/xc32/v2.05/bin/bin/../../lib/gcc/pic32mx/4.8.3/../../../../pic32mx/lib\libc.a(_fputc_simple.o)
 .debug_info    0x00025b6a       0xc5 c:/program files (x86)/microchip/xc32/v2.05/bin/bin/../../lib/gcc/pic32mx/4.8.3/../../../../pic32mx/lib\libc.a(_flsbuf_simple.o)
 .debug_info    0x00025c2f       0xd7 c:/program files (x86)/microchip/xc32/v2.05/bin/bin/../../lib/gcc/pic32mx/4.8.3/../../../../pic32mx/lib\libm.a(__strtof.o)
 .debug_info    0x00025d06       0xcd c:/program files (x86)/microchip/xc32/v2.05/bin/bin/../../lib/gcc/pic32mx/4.8.3/../../../../pic32mx/lib\libe.a(_fixunsdfdi.o)
 .debug_info    0x00025dd3       0xb9 c:/program files (x86)/microchip/xc32/v2.05/bin/bin/../../lib/gcc/pic32mx/4.8.3/../../../../pic32mx/lib\libe.a(_orderdf2.o)
 .debug_info    0x00025e8c       0xd8 c:/program files (x86)/microchip/xc32/v2.05/bin/bin/../../lib/gcc/pic32mx/4.8.3/../../../../pic32mx/lib\libe.a(_ldexpf.o)
 .debug_info    0x00025f64       0xb8 c:/program files (x86)/microchip/xc32/v2.05/bin/bin/../../lib/gcc/pic32mx/4.8.3/../../../../pic32mx/lib\libe.a(_fixdfdi.o)
 .debug_info    0x0002601c      0x25e c:/program files (x86)/microchip/xc32/v2.05/bin/bin/../../lib/gcc/pic32mx/4.8.3\libgcc.a(_floatundidf.o)
 .debug_info    0x0002627a      0x764 c:/program files (x86)/microchip/xc32/v2.05/bin/bin/../../lib/gcc/pic32mx/4.8.3\libgcc.a(_udivdi3.o)
 .debug_info    0x000269de      0x7a1 c:/program files (x86)/microchip/xc32/v2.05/bin/bin/../../lib/gcc/pic32mx/4.8.3\libgcc.a(_umoddi3.o)
 .debug_info    0x0002717f      0x140 c:/program files (x86)/microchip/xc32/v2.05/bin/bin/../../lib/gcc/pic32mx/4.8.3\libgcc.a(floatunsidf.o)
 .debug_info    0x000272bf       0xbe c:/program files (x86)/microchip/xc32/v2.05/bin/bin/../../lib/gcc/pic32mx/4.8.3/../../../../pic32mx/lib\libpic32.a(write.o)

.debug_abbrev   0x00000000     0x36e9
 *.elf(.debug_abbrev)
 *(.debug_abbrev)
 .debug_abbrev  0x00000000       0x28 c:/program files (x86)/microchip/xc32/v2.05/bin/bin/../../lib/gcc/pic32mx/4.8.3/../../../../pic32mx/lib\software-debug-break.o
 .debug_abbrev  0x00000028      0x424 build/default/debug/_ext/2128569739/drv_usbfs.o
 .debug_abbrev  0x0000044c      0x4d8 build/default/debug/_ext/2128569739/drv_usbfs_device.o
 .debug_abbrev  0x00000924       0xa4 build/default/debug/_ext/60165520/plib_clk.o
 .debug_abbrev  0x000009c8      0x1a9 build/default/debug/_ext/1249264884/plib_coretimer.o
 .debug_abbrev  0x00000b71      0x14c build/default/debug/_ext/1865200349/plib_evic.o
 .debug_abbrev  0x00000cbd       0xd7 build/default/debug/_ext/1865254177/plib_gpio.o
 .debug_abbrev  0x00000d94      0x20b build/default/debug/_ext/1865657120/plib_uart1.o
 .debug_abbrev  0x00000f9f      0x20b build/default/debug/_ext/1865657120/plib_uart2.o
 .debug_abbrev  0x000011aa       0x66 build/default/debug/_ext/163028504/xc32_monitor.o
 .debug_abbrev  0x00001210      0x177 build/default/debug/_ext/1881668453/sys_int.o
 .debug_abbrev  0x00001387      0x417 build/default/debug/_ext/308758920/usb_device.o
 .debug_abbrev  0x0000179e      0x42f build/default/debug/_ext/308758920/usb_device_cdc.o
 .debug_abbrev  0x00001bcd      0x199 build/default/debug/_ext/308758920/usb_device_cdc_acm.o
 .debug_abbrev  0x00001d66      0x202 build/default/debug/_ext/1171490990/initialization.o
 .debug_abbrev  0x00001f68       0x6f build/default/debug/_ext/1171490990/interrupts.o
 .debug_abbrev  0x00001fd7       0x78 build/default/debug/_ext/1171490990/exceptions.o
 .debug_abbrev  0x0000204f      0x1d3 build/default/debug/_ext/1171490990/usb_device_init_data.o
 .debug_abbrev  0x00002222       0xab build/default/debug/_ext/1171490990/tasks.o
 .debug_abbrev  0x000022cd      0x144 build/default/debug/_ext/1360937237/main.o
 .debug_abbrev  0x00002411      0x255 build/default/debug/_ext/1360937237/app.o
 .debug_abbrev  0x00002666      0x25e build/default/debug/_ext/1360937237/D32.o
 .debug_abbrev  0x000028c4      0x1ba build/default/debug/_ext/1360937237/app_main.o
 .debug_abbrev  0x00002a7e      0x278 build/default/debug/_ext/1548692632/Athena.o
 .debug_abbrev  0x00002cf6      0x183 build/default/debug/_ext/1548692632/thermal_states.o
 .debug_abbrev  0x00002e79      0x216 build/default/debug/_ext/1360937237/thermal_commands.o
 .debug_abbrev  0x0000308f       0x28 c:/program files (x86)/microchip/xc32/v2.05/bin/bin/../../lib/gcc/pic32mx/4.8.3/../../../../pic32mx/lib\libpic32.a(default-on-reset.o)
 .debug_abbrev  0x000030b7       0x28 c:/program files (x86)/microchip/xc32/v2.05/bin/bin/../../lib/gcc/pic32mx/4.8.3/../../../../pic32mx/lib\libpic32.a(default-on-bootstrap.o)
 .debug_abbrev  0x000030df       0x28 c:/program files (x86)/microchip/xc32/v2.05/bin/bin/../../lib/gcc/pic32mx/4.8.3/../../../../pic32mx/lib\libpic32.a(defaultinterrupt.o)
 .debug_abbrev  0x00003107       0x28 c:/program files (x86)/microchip/xc32/v2.05/bin/bin/../../lib/gcc/pic32mx/4.8.3/../../../../pic32mx/lib\libc.a(atoi.o)
 .debug_abbrev  0x0000312f       0x28 c:/program files (x86)/microchip/xc32/v2.05/bin/bin/../../lib/gcc/pic32mx/4.8.3/../../../../pic32mx/lib\libc.a(ctypef.o)
 .debug_abbrev  0x00003157       0x28 c:/program files (x86)/microchip/xc32/v2.05/bin/bin/../../lib/gcc/pic32mx/4.8.3/../../../../pic32mx/lib\libc.a(atof.o)
 .debug_abbrev  0x0000317f       0x28 c:/program files (x86)/microchip/xc32/v2.05/bin/bin/../../lib/gcc/pic32mx/4.8.3/../../../../pic32mx/lib\libc.a(sprintf_cdfFnopuxX.eo)
 .debug_abbrev  0x000031a7       0x4f c:/program files (x86)/microchip/xc32/v2.05/bin/bin/../../lib/gcc/pic32mx/4.8.3/../../../../pic32mx/lib\libc.a(strtof.o)
 .debug_abbrev  0x000031f6       0x45 c:/program files (x86)/microchip/xc32/v2.05/bin/bin/../../lib/gcc/pic32mx/4.8.3/../../../../pic32mx/lib\libc.a(doprnt_cdfFnopuxX.eo)
 .debug_abbrev  0x0000323b       0x28 c:/program files (x86)/microchip/xc32/v2.05/bin/bin/../../lib/gcc/pic32mx/4.8.3/../../../../pic32mx/lib\libc.a(_fputc_simple.o)
 .debug_abbrev  0x00003263       0x28 c:/program files (x86)/microchip/xc32/v2.05/bin/bin/../../lib/gcc/pic32mx/4.8.3/../../../../pic32mx/lib\libc.a(_flsbuf_simple.o)
 .debug_abbrev  0x0000328b       0x35 c:/program files (x86)/microchip/xc32/v2.05/bin/bin/../../lib/gcc/pic32mx/4.8.3/../../../../pic32mx/lib\libm.a(__strtof.o)
 .debug_abbrev  0x000032c0       0x37 c:/program files (x86)/microchip/xc32/v2.05/bin/bin/../../lib/gcc/pic32mx/4.8.3/../../../../pic32mx/lib\libe.a(_fixunsdfdi.o)
 .debug_abbrev  0x000032f7       0x28 c:/program files (x86)/microchip/xc32/v2.05/bin/bin/../../lib/gcc/pic32mx/4.8.3/../../../../pic32mx/lib\libe.a(_orderdf2.o)
 .debug_abbrev  0x0000331f       0x35 c:/program files (x86)/microchip/xc32/v2.05/bin/bin/../../lib/gcc/pic32mx/4.8.3/../../../../pic32mx/lib\libe.a(_ldexpf.o)
 .debug_abbrev  0x00003354       0x28 c:/program files (x86)/microchip/xc32/v2.05/bin/bin/../../lib/gcc/pic32mx/4.8.3/../../../../pic32mx/lib\libe.a(_fixdfdi.o)
 .debug_abbrev  0x0000337c       0x64 c:/program files (x86)/microchip/xc32/v2.05/bin/bin/../../lib/gcc/pic32mx/4.8.3\libgcc.a(_floatundidf.o)
 .debug_abbrev  0x000033e0      0x138 c:/program files (x86)/microchip/xc32/v2.05/bin/bin/../../lib/gcc/pic32mx/4.8.3\libgcc.a(_udivdi3.o)
 .debug_abbrev  0x00003518      0x147 c:/program files (x86)/microchip/xc32/v2.05/bin/bin/../../lib/gcc/pic32mx/4.8.3\libgcc.a(_umoddi3.o)
 .debug_abbrev  0x0000365f       0x62 c:/program files (x86)/microchip/xc32/v2.05/bin/bin/../../lib/gcc/pic32mx/4.8.3\libgcc.a(floatunsidf.o)
 .debug_abbrev  0x000036c1       0x28 c:/program files (x86)/microchip/xc32/v2.05/bin/bin/../../lib/gcc/pic32mx/4.8.3/../../../../pic32mx/lib\libpic32.a(write.o)

.debug_line     0x00000000     0x6c37
 *.elf(.debug_line)
 *(.debug_line)
 .debug_line    0x00000000       0x98 c:/program files (x86)/microchip/xc32/v2.05/bin/bin/../../lib/gcc/pic32mx/4.8.3/../../../../pic32mx/lib\software-debug-break.o
 .debug_line    0x00000098      0x837 build/default/debug/_ext/2128569739/drv_usbfs.o
 .debug_line    0x000008cf      0xe55 build/default/debug/_ext/2128569739/drv_usbfs_device.o
 .debug_line    0x00001724      0x14d build/default/debug/_ext/60165520/plib_clk.o
 .debug_line    0x00001871      0x215 build/default/debug/_ext/1249264884/plib_coretimer.o
 .debug_line    0x00001a86      0x20b build/default/debug/_ext/1865200349/plib_evic.o
 .debug_line    0x00001c91      0x1ef build/default/debug/_ext/1865254177/plib_gpio.o
 .debug_line    0x00001e80      0x2dd build/default/debug/_ext/1865657120/plib_uart1.o
 .debug_line    0x0000215d      0x2dd build/default/debug/_ext/1865657120/plib_uart2.o
 .debug_line    0x0000243a       0xad build/default/debug/_ext/163028504/xc32_monitor.o
 .debug_line    0x000024e7      0x1bf build/default/debug/_ext/1881668453/sys_int.o
 .debug_line    0x000026a6      0xaad build/default/debug/_ext/308758920/usb_device.o
 .debug_line    0x00003153      0x6f1 build/default/debug/_ext/308758920/usb_device_cdc.o
 .debug_line    0x00003844      0x24e build/default/debug/_ext/308758920/usb_device_cdc_acm.o
 .debug_line    0x00003a92      0x6a8 build/default/debug/_ext/1171490990/initialization.o
 .debug_line    0x0000413a       0xd8 build/default/debug/_ext/1171490990/interrupts.o
 .debug_line    0x00004212      0x18a build/default/debug/_ext/1171490990/exceptions.o
 .debug_line    0x0000439c      0x4a5 build/default/debug/_ext/1171490990/usb_device_init_data.o
 .debug_line    0x00004841      0x2a7 build/default/debug/_ext/1171490990/tasks.o
 .debug_line    0x00004ae8      0x2c5 build/default/debug/_ext/1360937237/main.o
 .debug_line    0x00004dad      0x404 build/default/debug/_ext/1360937237/app.o
 .debug_line    0x000051b1      0x260 build/default/debug/_ext/1360937237/D32.o
 .debug_line    0x00005411      0x356 build/default/debug/_ext/1360937237/app_main.o
 .debug_line    0x00005767      0x279 build/default/debug/_ext/1548692632/Athena.o
 .debug_line    0x000059e0      0x385 build/default/debug/_ext/1548692632/thermal_states.o
 .debug_line    0x00005d65      0x2a2 build/default/debug/_ext/1360937237/thermal_commands.o
 .debug_line    0x00006007       0x92 c:/program files (x86)/microchip/xc32/v2.05/bin/bin/../../lib/gcc/pic32mx/4.8.3/../../../../pic32mx/lib\libpic32.a(default-on-reset.o)
 .debug_line    0x00006099       0x96 c:/program files (x86)/microchip/xc32/v2.05/bin/bin/../../lib/gcc/pic32mx/4.8.3/../../../../pic32mx/lib\libpic32.a(default-on-bootstrap.o)
 .debug_line    0x0000612f       0xa4 c:/program files (x86)/microchip/xc32/v2.05/bin/bin/../../lib/gcc/pic32mx/4.8.3/../../../../pic32mx/lib\libpic32.a(defaultinterrupt.o)
 .debug_line    0x000061d3       0x7c c:/program files (x86)/microchip/xc32/v2.05/bin/bin/../../lib/gcc/pic32mx/4.8.3/../../../../pic32mx/lib\libc.a(atoi.o)
 .debug_line    0x0000624f        0x0 c:/program files (x86)/microchip/xc32/v2.05/bin/bin/../../lib/gcc/pic32mx/4.8.3/../../../../pic32mx/lib\libc.a(ctype.o)
 .debug_line    0x0000624f       0x7e c:/program files (x86)/microchip/xc32/v2.05/bin/bin/../../lib/gcc/pic32mx/4.8.3/../../../../pic32mx/lib\libc.a(ctypef.o)
 .debug_line    0x000062cd       0x7c c:/program files (x86)/microchip/xc32/v2.05/bin/bin/../../lib/gcc/pic32mx/4.8.3/../../../../pic32mx/lib\libc.a(atof.o)
 .debug_line    0x00006349       0x7f c:/program files (x86)/microchip/xc32/v2.05/bin/bin/../../lib/gcc/pic32mx/4.8.3/../../../../pic32mx/lib\libc.a(sprintf_cdfFnopuxX.eo)
 .debug_line    0x000063c8       0x7e c:/program files (x86)/microchip/xc32/v2.05/bin/bin/../../lib/gcc/pic32mx/4.8.3/../../../../pic32mx/lib\libc.a(strtof.o)
 .debug_line    0x00006446       0x7e c:/program files (x86)/microchip/xc32/v2.05/bin/bin/../../lib/gcc/pic32mx/4.8.3/../../../../pic32mx/lib\libc.a(doprnt_cdfFnopuxX.eo)
 .debug_line    0x000064c4       0x7d c:/program files (x86)/microchip/xc32/v2.05/bin/bin/../../lib/gcc/pic32mx/4.8.3/../../../../pic32mx/lib\libc.a(_fputc_simple.o)
 .debug_line    0x00006541        0x0 c:/program files (x86)/microchip/xc32/v2.05/bin/bin/../../lib/gcc/pic32mx/4.8.3/../../../../pic32mx/lib\libc.a(ldpowers.o)
 .debug_line    0x00006541        0x0 c:/program files (x86)/microchip/xc32/v2.05/bin/bin/../../lib/gcc/pic32mx/4.8.3/../../../../pic32mx/lib\libc.a(_iob.o)
 .debug_line    0x00006541       0x7e c:/program files (x86)/microchip/xc32/v2.05/bin/bin/../../lib/gcc/pic32mx/4.8.3/../../../../pic32mx/lib\libc.a(_flsbuf_simple.o)
 .debug_line    0x000065bf       0x87 c:/program files (x86)/microchip/xc32/v2.05/bin/bin/../../lib/gcc/pic32mx/4.8.3/../../../../pic32mx/lib\libm.a(__strtof.o)
 .debug_line    0x00006646       0x81 c:/program files (x86)/microchip/xc32/v2.05/bin/bin/../../lib/gcc/pic32mx/4.8.3/../../../../pic32mx/lib\libe.a(_fixunsdfdi.o)
 .debug_line    0x000066c7       0x80 c:/program files (x86)/microchip/xc32/v2.05/bin/bin/../../lib/gcc/pic32mx/4.8.3/../../../../pic32mx/lib\libe.a(_orderdf2.o)
 .debug_line    0x00006747       0xa1 c:/program files (x86)/microchip/xc32/v2.05/bin/bin/../../lib/gcc/pic32mx/4.8.3/../../../../pic32mx/lib\libe.a(_ldexpf.o)
 .debug_line    0x000067e8       0x80 c:/program files (x86)/microchip/xc32/v2.05/bin/bin/../../lib/gcc/pic32mx/4.8.3/../../../../pic32mx/lib\libe.a(_fixdfdi.o)
 .debug_line    0x00006868       0xa9 c:/program files (x86)/microchip/xc32/v2.05/bin/bin/../../lib/gcc/pic32mx/4.8.3\libgcc.a(_floatundidf.o)
 .debug_line    0x00006911       0xfb c:/program files (x86)/microchip/xc32/v2.05/bin/bin/../../lib/gcc/pic32mx/4.8.3\libgcc.a(_udivdi3.o)
 .debug_line    0x00006a0c      0x10d c:/program files (x86)/microchip/xc32/v2.05/bin/bin/../../lib/gcc/pic32mx/4.8.3\libgcc.a(_umoddi3.o)
 .debug_line    0x00006b19       0x97 c:/program files (x86)/microchip/xc32/v2.05/bin/bin/../../lib/gcc/pic32mx/4.8.3\libgcc.a(floatunsidf.o)
 .debug_line    0x00006bb0       0x87 c:/program files (x86)/microchip/xc32/v2.05/bin/bin/../../lib/gcc/pic32mx/4.8.3/../../../../pic32mx/lib\libpic32.a(write.o)
 .debug_line    0x00006c37        0x0 c:/program files (x86)/microchip/xc32/v2.05/bin/bin/../../lib/gcc/pic32mx/4.8.3/../../../../pic32mx/lib\libpic32.a(errno.o)

.debug_frame    0x00000000     0x1a20
 *.elf(.debug_frame)
 *(.debug_frame)
 .debug_frame   0x00000000       0x20 c:/program files (x86)/microchip/xc32/v2.05/bin/bin/../../lib/gcc/pic32mx/4.8.3/../../../../pic32mx/lib\software-debug-break.o
 .debug_frame   0x00000020       0xec build/default/debug/_ext/2128569739/drv_usbfs.o
 .debug_frame   0x0000010c      0x1e0 build/default/debug/_ext/2128569739/drv_usbfs_device.o
 .debug_frame   0x000002ec       0x20 build/default/debug/_ext/60165520/plib_clk.o
 .debug_frame   0x0000030c       0xd0 build/default/debug/_ext/1249264884/plib_coretimer.o
 .debug_frame   0x000003dc       0xcc build/default/debug/_ext/1865200349/plib_evic.o
 .debug_frame   0x000004a8       0xa0 build/default/debug/_ext/1865254177/plib_gpio.o
 .debug_frame   0x00000548       0xf4 build/default/debug/_ext/1865657120/plib_uart1.o
 .debug_frame   0x0000063c       0xf4 build/default/debug/_ext/1865657120/plib_uart2.o
 .debug_frame   0x00000730       0x30 build/default/debug/_ext/163028504/xc32_monitor.o
 .debug_frame   0x00000760       0x90 build/default/debug/_ext/1881668453/sys_int.o
 .debug_frame   0x000007f0      0x4d8 build/default/debug/_ext/308758920/usb_device.o
 .debug_frame   0x00000cc8      0x17c build/default/debug/_ext/308758920/usb_device_cdc.o
 .debug_frame   0x00000e44       0x28 build/default/debug/_ext/308758920/usb_device_cdc_acm.o
 .debug_frame   0x00000e6c       0x28 build/default/debug/_ext/1171490990/initialization.o
 .debug_frame   0x00000e94       0xc8 build/default/debug/_ext/1171490990/interrupts.o
 .debug_frame   0x00000f5c       0x40 build/default/debug/_ext/1171490990/exceptions.o
 .debug_frame   0x00000f9c       0x28 build/default/debug/_ext/1171490990/tasks.o
 .debug_frame   0x00000fc4       0x40 build/default/debug/_ext/1360937237/main.o
 .debug_frame   0x00001004       0x90 build/default/debug/_ext/1360937237/app.o
 .debug_frame   0x00001094      0x12c build/default/debug/_ext/1360937237/D32.o
 .debug_frame   0x000011c0       0xf0 build/default/debug/_ext/1360937237/app_main.o
 .debug_frame   0x000012b0       0xfc build/default/debug/_ext/1548692632/Athena.o
 .debug_frame   0x000013ac      0x150 build/default/debug/_ext/1548692632/thermal_states.o
 .debug_frame   0x000014fc       0xbc build/default/debug/_ext/1360937237/thermal_commands.o
 .debug_frame   0x000015b8       0x20 c:/program files (x86)/microchip/xc32/v2.05/bin/bin/../../lib/gcc/pic32mx/4.8.3/../../../../pic32mx/lib\libpic32.a(default-on-reset.o)
 .debug_frame   0x000015d8       0x20 c:/program files (x86)/microchip/xc32/v2.05/bin/bin/../../lib/gcc/pic32mx/4.8.3/../../../../pic32mx/lib\libpic32.a(default-on-bootstrap.o)
 .debug_frame   0x000015f8       0x20 c:/program files (x86)/microchip/xc32/v2.05/bin/bin/../../lib/gcc/pic32mx/4.8.3/../../../../pic32mx/lib\libpic32.a(defaultinterrupt.o)
 .debug_frame   0x00001618       0x20 c:/program files (x86)/microchip/xc32/v2.05/bin/bin/../../lib/gcc/pic32mx/4.8.3/../../../../pic32mx/lib\libc.a(atoi.o)
 .debug_frame   0x00001638      0x120 c:/program files (x86)/microchip/xc32/v2.05/bin/bin/../../lib/gcc/pic32mx/4.8.3/../../../../pic32mx/lib\libc.a(ctypef.o)
 .debug_frame   0x00001758       0x28 c:/program files (x86)/microchip/xc32/v2.05/bin/bin/../../lib/gcc/pic32mx/4.8.3/../../../../pic32mx/lib\libc.a(atof.o)
 .debug_frame   0x00001780       0x28 c:/program files (x86)/microchip/xc32/v2.05/bin/bin/../../lib/gcc/pic32mx/4.8.3/../../../../pic32mx/lib\libc.a(sprintf_cdfFnopuxX.eo)
 .debug_frame   0x000017a8       0x40 c:/program files (x86)/microchip/xc32/v2.05/bin/bin/../../lib/gcc/pic32mx/4.8.3/../../../../pic32mx/lib\libc.a(strtof.o)
 .debug_frame   0x000017e8       0x58 c:/program files (x86)/microchip/xc32/v2.05/bin/bin/../../lib/gcc/pic32mx/4.8.3/../../../../pic32mx/lib\libc.a(doprnt_cdfFnopuxX.eo)
 .debug_frame   0x00001840       0x2c c:/program files (x86)/microchip/xc32/v2.05/bin/bin/../../lib/gcc/pic32mx/4.8.3/../../../../pic32mx/lib\libc.a(_fputc_simple.o)
 .debug_frame   0x0000186c       0x28 c:/program files (x86)/microchip/xc32/v2.05/bin/bin/../../lib/gcc/pic32mx/4.8.3/../../../../pic32mx/lib\libc.a(_flsbuf_simple.o)
 .debug_frame   0x00001894       0x38 c:/program files (x86)/microchip/xc32/v2.05/bin/bin/../../lib/gcc/pic32mx/4.8.3/../../../../pic32mx/lib\libm.a(__strtof.o)
 .debug_frame   0x000018cc       0x2c c:/program files (x86)/microchip/xc32/v2.05/bin/bin/../../lib/gcc/pic32mx/4.8.3/../../../../pic32mx/lib\libe.a(_fixunsdfdi.o)
 .debug_frame   0x000018f8       0x20 c:/program files (x86)/microchip/xc32/v2.05/bin/bin/../../lib/gcc/pic32mx/4.8.3/../../../../pic32mx/lib\libe.a(_orderdf2.o)
 .debug_frame   0x00001918       0x20 c:/program files (x86)/microchip/xc32/v2.05/bin/bin/../../lib/gcc/pic32mx/4.8.3/../../../../pic32mx/lib\libe.a(_ldexpf.o)
 .debug_frame   0x00001938       0x20 c:/program files (x86)/microchip/xc32/v2.05/bin/bin/../../lib/gcc/pic32mx/4.8.3/../../../../pic32mx/lib\libe.a(_fixdfdi.o)
 .debug_frame   0x00001958       0x28 c:/program files (x86)/microchip/xc32/v2.05/bin/bin/../../lib/gcc/pic32mx/4.8.3\libgcc.a(_floatundidf.o)
 .debug_frame   0x00001980       0x20 c:/program files (x86)/microchip/xc32/v2.05/bin/bin/../../lib/gcc/pic32mx/4.8.3\libgcc.a(_udivdi3.o)
 .debug_frame   0x000019a0       0x20 c:/program files (x86)/microchip/xc32/v2.05/bin/bin/../../lib/gcc/pic32mx/4.8.3\libgcc.a(_umoddi3.o)
 .debug_frame   0x000019c0       0x28 c:/program files (x86)/microchip/xc32/v2.05/bin/bin/../../lib/gcc/pic32mx/4.8.3\libgcc.a(floatunsidf.o)
 .debug_frame   0x000019e8       0x38 c:/program files (x86)/microchip/xc32/v2.05/bin/bin/../../lib/gcc/pic32mx/4.8.3/../../../../pic32mx/lib\libpic32.a(write.o)

.debug_str      0x00000000      0x8cb
 *.elf(.debug_str)
 *(.debug_str)
 .debug_str     0x00000000        0x0 c:/program files (x86)/microchip/xc32/v2.05/bin/bin/../../lib/gcc/pic32mx/4.8.3/../../../../pic32mx/lib\software-debug-break.o
 .debug_str     0x00000000       0x9b build/default/debug/_ext/2128569739/drv_usbfs.o
 .debug_str     0x0000009b      0x173 build/default/debug/_ext/2128569739/drv_usbfs_device.o
 .debug_str     0x0000020e        0x0 build/default/debug/_ext/60165520/plib_clk.o
 .debug_str     0x0000020e       0x1d build/default/debug/_ext/1249264884/plib_coretimer.o
 .debug_str     0x0000022b        0x7 build/default/debug/_ext/1865200349/plib_evic.o
 .debug_str     0x00000232        0xa build/default/debug/_ext/1865254177/plib_gpio.o
 .debug_str     0x0000023c       0x15 build/default/debug/_ext/1865657120/plib_uart1.o
 .debug_str     0x00000251       0x15 build/default/debug/_ext/1865657120/plib_uart2.o
 .debug_str     0x00000266        0x0 build/default/debug/_ext/163028504/xc32_monitor.o
 .debug_str     0x00000266        0x0 build/default/debug/_ext/1881668453/sys_int.o
 .debug_str     0x00000266      0x2cc build/default/debug/_ext/308758920/usb_device.o
 .debug_str     0x00000532      0x134 build/default/debug/_ext/308758920/usb_device_cdc.o
 .debug_str     0x00000666        0xe build/default/debug/_ext/308758920/usb_device_cdc_acm.o
 .debug_str     0x00000674       0xa3 build/default/debug/_ext/1171490990/initialization.o
 .debug_str     0x00000717        0x0 build/default/debug/_ext/1171490990/interrupts.o
 .debug_str     0x00000717        0x0 build/default/debug/_ext/1171490990/exceptions.o
 .debug_str     0x00000717       0xab build/default/debug/_ext/1171490990/usb_device_init_data.o
 .debug_str     0x000007c2        0x0 build/default/debug/_ext/1171490990/tasks.o
 .debug_str     0x000007c2       0x22 build/default/debug/_ext/1360937237/main.o
 .debug_str     0x000007e4       0x32 build/default/debug/_ext/1360937237/app.o
 .debug_str     0x00000816        0x0 build/default/debug/_ext/1360937237/D32.o
 .debug_str     0x00000816       0x21 build/default/debug/_ext/1360937237/app_main.o
 .debug_str     0x00000837       0x54 build/default/debug/_ext/1548692632/Athena.o
 .debug_str     0x0000088b       0x1a build/default/debug/_ext/1548692632/thermal_states.o
 .debug_str     0x000008a5       0x1d build/default/debug/_ext/1360937237/thermal_commands.o
 .debug_str     0x000008c2        0x0 c:/program files (x86)/microchip/xc32/v2.05/bin/bin/../../lib/gcc/pic32mx/4.8.3/../../../../pic32mx/lib\libpic32.a(default-on-reset.o)
 .debug_str     0x000008c2        0x0 c:/program files (x86)/microchip/xc32/v2.05/bin/bin/../../lib/gcc/pic32mx/4.8.3/../../../../pic32mx/lib\libpic32.a(default-on-bootstrap.o)
 .debug_str     0x000008c2        0x0 c:/program files (x86)/microchip/xc32/v2.05/bin/bin/../../lib/gcc/pic32mx/4.8.3/../../../../pic32mx/lib\libpic32.a(defaultinterrupt.o)
 .debug_str     0x000008c2        0x0 c:/program files (x86)/microchip/xc32/v2.05/bin/bin/../../lib/gcc/pic32mx/4.8.3/../../../../pic32mx/lib\libc.a(atoi.o)
 .debug_str     0x000008c2        0x0 c:/program files (x86)/microchip/xc32/v2.05/bin/bin/../../lib/gcc/pic32mx/4.8.3/../../../../pic32mx/lib\libc.a(ctype.o)
 .debug_str     0x000008c2        0x0 c:/program files (x86)/microchip/xc32/v2.05/bin/bin/../../lib/gcc/pic32mx/4.8.3/../../../../pic32mx/lib\libc.a(ctypef.o)
 .debug_str     0x000008c2        0x0 c:/program files (x86)/microchip/xc32/v2.05/bin/bin/../../lib/gcc/pic32mx/4.8.3/../../../../pic32mx/lib\libc.a(atof.o)
 .debug_str     0x000008c2        0x0 c:/program files (x86)/microchip/xc32/v2.05/bin/bin/../../lib/gcc/pic32mx/4.8.3/../../../../pic32mx/lib\libc.a(sprintf_cdfFnopuxX.eo)
 .debug_str     0x000008c2        0x9 c:/program files (x86)/microchip/xc32/v2.05/bin/bin/../../lib/gcc/pic32mx/4.8.3/../../../../pic32mx/lib\libc.a(strtof.o)
 .debug_str     0x000008cb        0x0 c:/program files (x86)/microchip/xc32/v2.05/bin/bin/../../lib/gcc/pic32mx/4.8.3/../../../../pic32mx/lib\libc.a(doprnt_cdfFnopuxX.eo)
 .debug_str     0x000008cb        0x0 c:/program files (x86)/microchip/xc32/v2.05/bin/bin/../../lib/gcc/pic32mx/4.8.3/../../../../pic32mx/lib\libc.a(_fputc_simple.o)
 .debug_str     0x000008cb        0x0 c:/program files (x86)/microchip/xc32/v2.05/bin/bin/../../lib/gcc/pic32mx/4.8.3/../../../../pic32mx/lib\libc.a(ldpowers.o)
 .debug_str     0x000008cb        0x0 c:/program files (x86)/microchip/xc32/v2.05/bin/bin/../../lib/gcc/pic32mx/4.8.3/../../../../pic32mx/lib\libc.a(_iob.o)
 .debug_str     0x000008cb        0x0 c:/program files (x86)/microchip/xc32/v2.05/bin/bin/../../lib/gcc/pic32mx/4.8.3/../../../../pic32mx/lib\libc.a(_flsbuf_simple.o)
 .debug_str     0x000008cb        0x0 c:/program files (x86)/microchip/xc32/v2.05/bin/bin/../../lib/gcc/pic32mx/4.8.3/../../../../pic32mx/lib\libm.a(__strtof.o)
 .debug_str     0x000008cb        0x0 c:/program files (x86)/microchip/xc32/v2.05/bin/bin/../../lib/gcc/pic32mx/4.8.3/../../../../pic32mx/lib\libe.a(_fixunsdfdi.o)
 .debug_str     0x000008cb        0x0 c:/program files (x86)/microchip/xc32/v2.05/bin/bin/../../lib/gcc/pic32mx/4.8.3/../../../../pic32mx/lib\libe.a(_orderdf2.o)
 .debug_str     0x000008cb        0x0 c:/program files (x86)/microchip/xc32/v2.05/bin/bin/../../lib/gcc/pic32mx/4.8.3/../../../../pic32mx/lib\libe.a(_ldexpf.o)
 .debug_str     0x000008cb        0x0 c:/program files (x86)/microchip/xc32/v2.05/bin/bin/../../lib/gcc/pic32mx/4.8.3/../../../../pic32mx/lib\libe.a(_fixdfdi.o)
 .debug_str     0x000008cb        0x0 c:/program files (x86)/microchip/xc32/v2.05/bin/bin/../../lib/gcc/pic32mx/4.8.3\libgcc.a(_floatundidf.o)
 .debug_str     0x000008cb        0x0 c:/program files (x86)/microchip/xc32/v2.05/bin/bin/../../lib/gcc/pic32mx/4.8.3\libgcc.a(_udivdi3.o)
 .debug_str     0x000008cb        0x0 c:/program files (x86)/microchip/xc32/v2.05/bin/bin/../../lib/gcc/pic32mx/4.8.3\libgcc.a(_umoddi3.o)
 .debug_str     0x000008cb        0x0 c:/program files (x86)/microchip/xc32/v2.05/bin/bin/../../lib/gcc/pic32mx/4.8.3\libgcc.a(floatunsidf.o)
 .debug_str     0x000008cb        0x0 c:/program files (x86)/microchip/xc32/v2.05/bin/bin/../../lib/gcc/pic32mx/4.8.3/../../../../pic32mx/lib\libpic32.a(write.o)
 .debug_str     0x000008cb        0x0 c:/program files (x86)/microchip/xc32/v2.05/bin/bin/../../lib/gcc/pic32mx/4.8.3/../../../../pic32mx/lib\libpic32.a(errno.o)

.debug_loc      0x00000000     0x921b
 *.elf(.debug_loc)
 *(.debug_loc)
 .debug_loc     0x00000000      0x45f build/default/debug/_ext/2128569739/drv_usbfs.o
 .debug_loc     0x0000045f     0x21b0 build/default/debug/_ext/2128569739/drv_usbfs_device.o
 .debug_loc     0x0000260f      0x148 build/default/debug/_ext/1249264884/plib_coretimer.o
 .debug_loc     0x00002757      0x143 build/default/debug/_ext/1865200349/plib_evic.o
 .debug_loc     0x0000289a      0x129 build/default/debug/_ext/1865254177/plib_gpio.o
 .debug_loc     0x000029c3      0x4d4 build/default/debug/_ext/1865657120/plib_uart1.o
 .debug_loc     0x00002e97      0x4d4 build/default/debug/_ext/1865657120/plib_uart2.o
 .debug_loc     0x0000336b      0x192 build/default/debug/_ext/1881668453/sys_int.o
 .debug_loc     0x000034fd     0x23e3 build/default/debug/_ext/308758920/usb_device.o
 .debug_loc     0x000058e0      0xf57 build/default/debug/_ext/308758920/usb_device_cdc.o
 .debug_loc     0x00006837      0x21f build/default/debug/_ext/308758920/usb_device_cdc_acm.o
 .debug_loc     0x00006a56       0x41 build/default/debug/_ext/1171490990/initialization.o
 .debug_loc     0x00006a97       0x82 build/default/debug/_ext/1171490990/interrupts.o
 .debug_loc     0x00006b19       0x40 build/default/debug/_ext/1171490990/exceptions.o
 .debug_loc     0x00006b59       0x20 build/default/debug/_ext/1171490990/tasks.o
 .debug_loc     0x00006b79       0x82 build/default/debug/_ext/1360937237/main.o
 .debug_loc     0x00006bfb      0x48a build/default/debug/_ext/1360937237/app.o
 .debug_loc     0x00007085      0x356 build/default/debug/_ext/1360937237/D32.o
 .debug_loc     0x000073db       0x40 build/default/debug/_ext/1360937237/app_main.o
 .debug_loc     0x0000741b      0x4c9 build/default/debug/_ext/1548692632/Athena.o
 .debug_loc     0x000078e4       0x80 build/default/debug/_ext/1548692632/thermal_states.o
 .debug_loc     0x00007964      0x2d7 build/default/debug/_ext/1360937237/thermal_commands.o
 .debug_loc     0x00007c3b       0x20 c:/program files (x86)/microchip/xc32/v2.05/bin/bin/../../lib/gcc/pic32mx/4.8.3/../../../../pic32mx/lib\libm.a(__strtof.o)
 .debug_loc     0x00007c5b       0x20 c:/program files (x86)/microchip/xc32/v2.05/bin/bin/../../lib/gcc/pic32mx/4.8.3/../../../../pic32mx/lib\libe.a(_fixunsdfdi.o)
 .debug_loc     0x00007c7b       0x41 c:/program files (x86)/microchip/xc32/v2.05/bin/bin/../../lib/gcc/pic32mx/4.8.3\libgcc.a(_floatundidf.o)
 .debug_loc     0x00007cbc      0xa6a c:/program files (x86)/microchip/xc32/v2.05/bin/bin/../../lib/gcc/pic32mx/4.8.3\libgcc.a(_udivdi3.o)
 .debug_loc     0x00008726      0xa3d c:/program files (x86)/microchip/xc32/v2.05/bin/bin/../../lib/gcc/pic32mx/4.8.3\libgcc.a(_umoddi3.o)
 .debug_loc     0x00009163       0x80 c:/program files (x86)/microchip/xc32/v2.05/bin/bin/../../lib/gcc/pic32mx/4.8.3\libgcc.a(floatunsidf.o)
 .debug_loc     0x000091e3       0x38 c:/program files (x86)/microchip/xc32/v2.05/bin/bin/../../lib/gcc/pic32mx/4.8.3/../../../../pic32mx/lib\libpic32.a(write.o)

.debug_macinfo
 *.elf(.debug_macinfo)
 *(.debug_macinfo)

.debug_weaknames
 *.elf(.debug_weaknames)
 *(.debug_weaknames)

.debug_funcnames
 *.elf(.debug_funcnames)
 *(.debug_funcnames)

.debug_typenames
 *.elf(.debug_typenames)
 *(.debug_typenames)

.debug_varnames
 *.elf(.debug_varnames)
 *(.debug_varnames)

.debug_pubtypes
 *.elf(.debug_pubtypes)
 *(.debug_pubtypes)

.debug_ranges   0x00000000      0xbb0
 *.elf(.debug_ranges)
 *(.debug_ranges)
 .debug_ranges  0x00000000       0x10 c:/program files (x86)/microchip/xc32/v2.05/bin/bin/../../lib/gcc/pic32mx/4.8.3/../../../../pic32mx/lib\software-debug-break.o
 .debug_ranges  0x00000010       0x58 build/default/debug/_ext/2128569739/drv_usbfs.o
 .debug_ranges  0x00000068      0x110 build/default/debug/_ext/2128569739/drv_usbfs_device.o
 .debug_ranges  0x00000178       0x10 build/default/debug/_ext/60165520/plib_clk.o
 .debug_ranges  0x00000188       0x50 build/default/debug/_ext/1249264884/plib_coretimer.o
 .debug_ranges  0x000001d8       0x58 build/default/debug/_ext/1865200349/plib_evic.o
 .debug_ranges  0x00000230       0x50 build/default/debug/_ext/1865254177/plib_gpio.o
 .debug_ranges  0x00000280       0x70 build/default/debug/_ext/1865657120/plib_uart1.o
 .debug_ranges  0x000002f0       0x70 build/default/debug/_ext/1865657120/plib_uart2.o
 .debug_ranges  0x00000360       0x18 build/default/debug/_ext/163028504/xc32_monitor.o
 .debug_ranges  0x00000378       0x30 build/default/debug/_ext/1881668453/sys_int.o
 .debug_ranges  0x000003a8      0x190 build/default/debug/_ext/308758920/usb_device.o
 .debug_ranges  0x00000538       0x78 build/default/debug/_ext/308758920/usb_device_cdc.o
 .debug_ranges  0x000005b0       0x10 build/default/debug/_ext/308758920/usb_device_cdc_acm.o
 .debug_ranges  0x000005c0       0x10 build/default/debug/_ext/1171490990/initialization.o
 .debug_ranges  0x000005d0       0x28 build/default/debug/_ext/1171490990/interrupts.o
 .debug_ranges  0x000005f8       0x18 build/default/debug/_ext/1171490990/exceptions.o
 .debug_ranges  0x00000610       0x10 build/default/debug/_ext/1171490990/tasks.o
 .debug_ranges  0x00000620       0x18 build/default/debug/_ext/1360937237/main.o
 .debug_ranges  0x00000638       0x38 build/default/debug/_ext/1360937237/app.o
 .debug_ranges  0x00000670       0x80 build/default/debug/_ext/1360937237/D32.o
 .debug_ranges  0x000006f0       0x70 build/default/debug/_ext/1360937237/app_main.o
 .debug_ranges  0x00000760       0x68 build/default/debug/_ext/1548692632/Athena.o
 .debug_ranges  0x000007c8       0x98 build/default/debug/_ext/1548692632/thermal_states.o
 .debug_ranges  0x00000860       0x40 build/default/debug/_ext/1360937237/thermal_commands.o
 .debug_ranges  0x000008a0       0x10 c:/program files (x86)/microchip/xc32/v2.05/bin/bin/../../lib/gcc/pic32mx/4.8.3/../../../../pic32mx/lib\libpic32.a(default-on-reset.o)
 .debug_ranges  0x000008b0       0x10 c:/program files (x86)/microchip/xc32/v2.05/bin/bin/../../lib/gcc/pic32mx/4.8.3/../../../../pic32mx/lib\libpic32.a(default-on-bootstrap.o)
 .debug_ranges  0x000008c0       0x10 c:/program files (x86)/microchip/xc32/v2.05/bin/bin/../../lib/gcc/pic32mx/4.8.3/../../../../pic32mx/lib\libpic32.a(defaultinterrupt.o)
 .debug_ranges  0x000008d0       0x10 c:/program files (x86)/microchip/xc32/v2.05/bin/bin/../../lib/gcc/pic32mx/4.8.3/../../../../pic32mx/lib\libc.a(atoi.o)
 .debug_ranges  0x000008e0       0x90 c:/program files (x86)/microchip/xc32/v2.05/bin/bin/../../lib/gcc/pic32mx/4.8.3/../../../../pic32mx/lib\libc.a(ctypef.o)
 .debug_ranges  0x00000970       0x10 c:/program files (x86)/microchip/xc32/v2.05/bin/bin/../../lib/gcc/pic32mx/4.8.3/../../../../pic32mx/lib\libc.a(atof.o)
 .debug_ranges  0x00000980       0x10 c:/program files (x86)/microchip/xc32/v2.05/bin/bin/../../lib/gcc/pic32mx/4.8.3/../../../../pic32mx/lib\libc.a(sprintf_cdfFnopuxX.eo)
 .debug_ranges  0x00000990       0x18 c:/program files (x86)/microchip/xc32/v2.05/bin/bin/../../lib/gcc/pic32mx/4.8.3/../../../../pic32mx/lib\libc.a(strtof.o)
 .debug_ranges  0x000009a8       0x18 c:/program files (x86)/microchip/xc32/v2.05/bin/bin/../../lib/gcc/pic32mx/4.8.3/../../../../pic32mx/lib\libc.a(doprnt_cdfFnopuxX.eo)
 .debug_ranges  0x000009c0       0x10 c:/program files (x86)/microchip/xc32/v2.05/bin/bin/../../lib/gcc/pic32mx/4.8.3/../../../../pic32mx/lib\libc.a(_fputc_simple.o)
 .debug_ranges  0x000009d0       0x10 c:/program files (x86)/microchip/xc32/v2.05/bin/bin/../../lib/gcc/pic32mx/4.8.3/../../../../pic32mx/lib\libc.a(_flsbuf_simple.o)
 .debug_ranges  0x000009e0       0x10 c:/program files (x86)/microchip/xc32/v2.05/bin/bin/../../lib/gcc/pic32mx/4.8.3/../../../../pic32mx/lib\libm.a(__strtof.o)
 .debug_ranges  0x000009f0       0x10 c:/program files (x86)/microchip/xc32/v2.05/bin/bin/../../lib/gcc/pic32mx/4.8.3/../../../../pic32mx/lib\libe.a(_fixunsdfdi.o)
 .debug_ranges  0x00000a00       0x10 c:/program files (x86)/microchip/xc32/v2.05/bin/bin/../../lib/gcc/pic32mx/4.8.3/../../../../pic32mx/lib\libe.a(_orderdf2.o)
 .debug_ranges  0x00000a10       0x10 c:/program files (x86)/microchip/xc32/v2.05/bin/bin/../../lib/gcc/pic32mx/4.8.3/../../../../pic32mx/lib\libe.a(_ldexpf.o)
 .debug_ranges  0x00000a20       0x10 c:/program files (x86)/microchip/xc32/v2.05/bin/bin/../../lib/gcc/pic32mx/4.8.3/../../../../pic32mx/lib\libe.a(_fixdfdi.o)
 .debug_ranges  0x00000a30       0x98 c:/program files (x86)/microchip/xc32/v2.05/bin/bin/../../lib/gcc/pic32mx/4.8.3\libgcc.a(_udivdi3.o)
 .debug_ranges  0x00000ac8       0xd8 c:/program files (x86)/microchip/xc32/v2.05/bin/bin/../../lib/gcc/pic32mx/4.8.3\libgcc.a(_umoddi3.o)
 .debug_ranges  0x00000ba0       0x10 c:/program files (x86)/microchip/xc32/v2.05/bin/bin/../../lib/gcc/pic32mx/4.8.3/../../../../pic32mx/lib\libpic32.a(write.o)

.gnu.attributes
                0x00000000       0x10
 *(.gnu.attributes)
 .gnu.attributes
                0x00000000       0x10 c:/program files (x86)/microchip/xc32/v2.05/bin/bin/../../lib/gcc/pic32mx/4.8.3/../../../../pic32mx/lib\software-debug-break.o
 .gnu.attributes
                0x00000010       0x10 build/default/debug/_ext/2128569739/drv_usbfs.o
 .gnu.attributes
                0x00000020       0x10 build/default/debug/_ext/2128569739/drv_usbfs_device.o
 .gnu.attributes
                0x00000030       0x10 build/default/debug/_ext/60165520/plib_clk.o
 .gnu.attributes
                0x00000040       0x10 build/default/debug/_ext/1249264884/plib_coretimer.o
 .gnu.attributes
                0x00000050       0x10 build/default/debug/_ext/1865200349/plib_evic.o
 .gnu.attributes
                0x00000060       0x10 build/default/debug/_ext/1865254177/plib_gpio.o
 .gnu.attributes
                0x00000070       0x10 build/default/debug/_ext/1865657120/plib_uart1.o
 .gnu.attributes
                0x00000080       0x10 build/default/debug/_ext/1865657120/plib_uart2.o
 .gnu.attributes
                0x00000090       0x10 build/default/debug/_ext/163028504/xc32_monitor.o
 .gnu.attributes
                0x000000a0       0x10 build/default/debug/_ext/1881668453/sys_int.o
 .gnu.attributes
                0x000000b0       0x10 build/default/debug/_ext/308758920/usb_device.o
 .gnu.attributes
                0x000000c0       0x10 build/default/debug/_ext/308758920/usb_device_cdc.o
 .gnu.attributes
                0x000000d0       0x10 build/default/debug/_ext/308758920/usb_device_cdc_acm.o
 .gnu.attributes
                0x000000e0       0x10 build/default/debug/_ext/1171490990/initialization.o
 .gnu.attributes
                0x000000f0       0x10 build/default/debug/_ext/1171490990/interrupts.o
 .gnu.attributes
                0x00000100       0x10 build/default/debug/_ext/1171490990/exceptions.o
 .gnu.attributes
                0x00000110       0x10 build/default/debug/_ext/1171490990/usb_device_init_data.o
 .gnu.attributes
                0x00000120       0x10 build/default/debug/_ext/1171490990/tasks.o
 .gnu.attributes
                0x00000130       0x10 build/default/debug/_ext/1360937237/main.o
 .gnu.attributes
                0x00000140       0x10 build/default/debug/_ext/1360937237/app.o
 .gnu.attributes
                0x00000150       0x10 build/default/debug/_ext/1360937237/D32.o
 .gnu.attributes
                0x00000160       0x10 build/default/debug/_ext/1360937237/app_main.o
 .gnu.attributes
                0x00000170       0x10 build/default/debug/_ext/1548692632/Athena.o
 .gnu.attributes
                0x00000180       0x10 build/default/debug/_ext/1548692632/thermal_states.o
 .gnu.attributes
                0x00000190       0x10 build/default/debug/_ext/1360937237/thermal_commands.o
 .gnu.attributes
                0x000001a0       0x10 c:/program files (x86)/microchip/xc32/v2.05/bin/bin/../../lib/gcc/pic32mx/4.8.3/../../../../pic32mx/lib\libpic32.a(default-on-reset.o)
 .gnu.attributes
                0x000001b0       0x10 c:/program files (x86)/microchip/xc32/v2.05/bin/bin/../../lib/gcc/pic32mx/4.8.3/../../../../pic32mx/lib\libpic32.a(default-on-bootstrap.o)
 .gnu.attributes
                0x000001c0       0x10 c:/program files (x86)/microchip/xc32/v2.05/bin/bin/../../lib/gcc/pic32mx/4.8.3/../../../../pic32mx/lib\libpic32.a(defaultinterrupt.o)
 .gnu.attributes
                0x000001d0       0x10 c:/program files (x86)/microchip/xc32/v2.05/bin/bin/../../lib/gcc/pic32mx/4.8.3/../../../../pic32mx/lib\libc.a(atoi.o)
 .gnu.attributes
                0x000001e0       0x10 c:/program files (x86)/microchip/xc32/v2.05/bin/bin/../../lib/gcc/pic32mx/4.8.3/../../../../pic32mx/lib\libc.a(ctype.o)
 .gnu.attributes
                0x000001f0       0x10 c:/program files (x86)/microchip/xc32/v2.05/bin/bin/../../lib/gcc/pic32mx/4.8.3/../../../../pic32mx/lib\libc.a(ctypef.o)
 .gnu.attributes
                0x00000200       0x10 c:/program files (x86)/microchip/xc32/v2.05/bin/bin/../../lib/gcc/pic32mx/4.8.3/../../../../pic32mx/lib\libc.a(atof.o)
 .gnu.attributes
                0x00000210       0x10 c:/program files (x86)/microchip/xc32/v2.05/bin/bin/../../lib/gcc/pic32mx/4.8.3/../../../../pic32mx/lib\libc.a(sprintf_cdfFnopuxX.eo)
 .gnu.attributes
                0x00000220       0x10 c:/program files (x86)/microchip/xc32/v2.05/bin/bin/../../lib/gcc/pic32mx/4.8.3/../../../../pic32mx/lib\libc.a(strtof.o)
 .gnu.attributes
                0x00000230       0x10 c:/program files (x86)/microchip/xc32/v2.05/bin/bin/../../lib/gcc/pic32mx/4.8.3/../../../../pic32mx/lib\libc.a(doprnt_cdfFnopuxX.eo)
 .gnu.attributes
                0x00000240       0x10 c:/program files (x86)/microchip/xc32/v2.05/bin/bin/../../lib/gcc/pic32mx/4.8.3/../../../../pic32mx/lib\libc.a(_fputc_simple.o)
 .gnu.attributes
                0x00000250       0x10 c:/program files (x86)/microchip/xc32/v2.05/bin/bin/../../lib/gcc/pic32mx/4.8.3/../../../../pic32mx/lib\libc.a(ldpowers.o)
 .gnu.attributes
                0x00000260       0x10 c:/program files (x86)/microchip/xc32/v2.05/bin/bin/../../lib/gcc/pic32mx/4.8.3/../../../../pic32mx/lib\libc.a(_iob.o)
 .gnu.attributes
                0x00000270       0x10 c:/program files (x86)/microchip/xc32/v2.05/bin/bin/../../lib/gcc/pic32mx/4.8.3/../../../../pic32mx/lib\libc.a(_flsbuf_simple.o)
 .gnu.attributes
                0x00000280       0x10 c:/program files (x86)/microchip/xc32/v2.05/bin/bin/../../lib/gcc/pic32mx/4.8.3/../../../../pic32mx/lib\libm.a(__strtof.o)
 .gnu.attributes
                0x00000290       0x10 c:/program files (x86)/microchip/xc32/v2.05/bin/bin/../../lib/gcc/pic32mx/4.8.3/../../../../pic32mx/lib\libe.a(_fixunsdfdi.o)
 .gnu.attributes
                0x000002a0       0x10 c:/program files (x86)/microchip/xc32/v2.05/bin/bin/../../lib/gcc/pic32mx/4.8.3/../../../../pic32mx/lib\libe.a(_orderdf2.o)
 .gnu.attributes
                0x000002b0       0x10 c:/program files (x86)/microchip/xc32/v2.05/bin/bin/../../lib/gcc/pic32mx/4.8.3/../../../../pic32mx/lib\libe.a(_ldexpf.o)
 .gnu.attributes
                0x000002c0       0x10 c:/program files (x86)/microchip/xc32/v2.05/bin/bin/../../lib/gcc/pic32mx/4.8.3/../../../../pic32mx/lib\libe.a(_fixdfdi.o)
 .gnu.attributes
                0x000002d0       0x10 c:/program files (x86)/microchip/xc32/v2.05/bin/bin/../../lib/gcc/pic32mx/4.8.3\libgcc.a(_floatundidf.o)
 .gnu.attributes
                0x000002e0       0x10 c:/program files (x86)/microchip/xc32/v2.05/bin/bin/../../lib/gcc/pic32mx/4.8.3\libgcc.a(_udivdi3.o)
 .gnu.attributes
                0x000002f0       0x10 c:/program files (x86)/microchip/xc32/v2.05/bin/bin/../../lib/gcc/pic32mx/4.8.3\libgcc.a(_umoddi3.o)
 .gnu.attributes
                0x00000300       0x10 c:/program files (x86)/microchip/xc32/v2.05/bin/bin/../../lib/gcc/pic32mx/4.8.3\libgcc.a(floatunsidf.o)
 .gnu.attributes
                0x00000310       0x10 c:/program files (x86)/microchip/xc32/v2.05/bin/bin/../../lib/gcc/pic32mx/4.8.3/../../../../pic32mx/lib\libpic32.a(write.o)
 .gnu.attributes
                0x00000320       0x10 c:/program files (x86)/microchip/xc32/v2.05/bin/bin/../../lib/gcc/pic32mx/4.8.3/../../../../pic32mx/lib\libpic32.a(errno.o)
                0x00000001                __MPLAB_DEBUG = 0x1
                0x00000001                __DEBUG = 0x1
                0x00000001                __MPLAB_DEBUGGER_PK3 = 0x1
                0x00000200                _min_heap_size = 0x200
LOAD c:/program files (x86)/microchip/xc32/v2.05/bin/bin/../../lib/gcc/pic32mx/4.8.3/../../../../pic32mx/lib/./proc/32MX440F256H\default_isr_vectors.o
LOAD c:/program files (x86)/microchip/xc32/v2.05/bin/bin/../../lib/gcc/pic32mx/4.8.3/../../../../pic32mx/lib\pic32_software_reset.o
LOAD c:/program files (x86)/microchip/xc32/v2.05/bin/bin/../../lib/gcc/pic32mx/4.8.3\libgcc.a
START GROUP
LOAD c:/program files (x86)/microchip/xc32/v2.05/bin/bin/../../lib/gcc/pic32mx/4.8.3/../../../../pic32mx/lib\libpic32.a
LOAD c:/program files (x86)/microchip/xc32/v2.05/bin/bin/../../lib/gcc/pic32mx/4.8.3/../../../../pic32mx/lib\libdebug.a
LOAD c:/program files (x86)/microchip/xc32/v2.05/bin/bin/../../lib/gcc/pic32mx/4.8.3/../../../../pic32mx/lib\libpic32.a
LOAD c:/program files (x86)/microchip/xc32/v2.05/bin/bin/../../lib/gcc/pic32mx/4.8.3/../../../../pic32mx/lib\libc.a
LOAD c:/program files (x86)/microchip/xc32/v2.05/bin/bin/../../lib/gcc/pic32mx/4.8.3/../../../../pic32mx/lib\libc.a
LOAD c:/program files (x86)/microchip/xc32/v2.05/bin/bin/../../lib/gcc/pic32mx/4.8.3/../../../../pic32mx/lib\libm.a
LOAD c:/program files (x86)/microchip/xc32/v2.05/bin/bin/../../lib/gcc/pic32mx/4.8.3/../../../../pic32mx/lib\libe.a
LOAD c:/program files (x86)/microchip/xc32/v2.05/bin/bin/../../lib/gcc/pic32mx/4.8.3/../../../../pic32mx/lib\libdsp.a
LOAD c:/program files (x86)/microchip/xc32/v2.05/bin/bin/../../lib/gcc/pic32mx/4.8.3\libgcc.a
LOAD c:/program files (x86)/microchip/xc32/v2.05/bin/bin/../../lib/gcc/pic32mx/4.8.3/../../../../pic32mx/lib\libpic32.a
END GROUP
LOAD c:/program files (x86)/microchip/xc32/v2.05/bin/bin/../../lib/gcc/pic32mx/4.8.3\libgcc.a
OUTPUT(dist/default/debug/thermal_testy.X.debug.elf elf32-tradlittlemips)
LOAD stack
LOAD data_init

.reginfo        0x00000000       0x18
 .reginfo       0x00000000       0x18 c:/program files (x86)/microchip/xc32/v2.05/bin/bin/../../lib/gcc/pic32mx/4.8.3/../../../../pic32mx/lib/./proc/32MX440F256H/crt0_mips32r2.o

.stack          0xa00010d0      0x400
 .stack         0xa00010d0      0x400 stack

.data           0xa0000294      0x144
 .data          0xa0000294      0x144 build/default/debug/_ext/1548692632/Athena.o
                0xa0000294                badIDArray
                0xa00002a0                timeOutArray

.bss            0xa0000cec       0xf4
 .bss           0xa0000cec       0xf4 build/default/debug/_ext/308758920/usb_device.o

.data           0xa0000de0       0x50
 .data          0xa0000de0       0x50 build/default/debug/_ext/2128569739/drv_usbfs_device.o
                0xa0000de0                gDrvUSBFSDeviceInterface

.bss            0xa0000e30       0x44
 .bss           0xa0000e30       0x44 c:/program files (x86)/microchip/xc32/v2.05/bin/bin/../../lib/gcc/pic32mx/4.8.3/../../../../pic32mx/lib\libc.a(_iob.o)
                0xa0000e30                _sobuf
                0xa0000e50                _sibuf
                0xa0000e70                _outdone

.data           0xa0000e74       0x3c
 .data          0xa0000e74       0x3c build/default/debug/_ext/1360937237/D32.o
                0xa0000e74                BC_ERROR
                0xa0000e80                GL_ERROR
                0xa0000e8c                st_version

.bss.errno      0xa00003d8        0x4
 .bss.errno     0xa00003d8        0x4 c:/program files (x86)/microchip/xc32/v2.05/bin/bin/../../lib/gcc/pic32mx/4.8.3/../../../../pic32mx/lib\libpic32.a(errno.o)
                0xa00003d8                errno

.text._vfprintf_cdfFnopuxX
                0x9d000000     0x1554
 .text._vfprintf_cdfFnopuxX
                0x9d000000     0x1554 c:/program files (x86)/microchip/xc32/v2.05/bin/bin/../../lib/gcc/pic32mx/4.8.3/../../../../pic32mx/lib\libc.a(doprnt_cdfFnopuxX.eo)
                0x9d000000                _vfprintf_cdnopuxX
                0x9d000000                _vfprintf_cdfFnopuxX
                0x9d000000                _vfprintf_fF

.text._DRV_USBFS_DEVICE_Tasks_ISR
                0x9d001554      0x674
 .text._DRV_USBFS_DEVICE_Tasks_ISR
                0x9d001554      0x674 build/default/debug/_ext/2128569739/drv_usbfs_device.o
                0x9d001554                _DRV_USBFS_DEVICE_Tasks_ISR

.text.dp32mul   0x9d001bc8      0x4b8
 .text.dp32mul  0x9d001bc8      0x4b8 c:/program files (x86)/microchip/xc32/v2.05/bin/bin/../../lib/gcc/pic32mx/4.8.3/../../../../pic32mx/lib\libm.a(dp32div.o)
                0x9d001bc8                __divdf3
                0x9d001bc8                dpdiv

.text           0x9d002080      0x8bc
 .text          0x9d002080      0x464 c:/program files (x86)/microchip/xc32/v2.05/bin/bin/../../lib/gcc/pic32mx/4.8.3\libgcc.a(_umoddi3.o)
                0x9d002080                __umoddi3
 .text          0x9d0024e4      0x458 c:/program files (x86)/microchip/xc32/v2.05/bin/bin/../../lib/gcc/pic32mx/4.8.3\libgcc.a(_udivdi3.o)
                0x9d0024e4                __udivdi3

.text.dp32subadd
                0x9d00293c      0x430
 .text.dp32subadd
                0x9d00293c      0x430 c:/program files (x86)/microchip/xc32/v2.05/bin/bin/../../lib/gcc/pic32mx/4.8.3/../../../../pic32mx/lib\libm.a(dp32subadd.o)
                0x9d00293c                __subdf3
                0x9d00293c                dpsub
                0x9d002944                dpadd
                0x9d002944                __adddf3

.text.__strtof  0x9d002d6c      0x358
 .text.__strtof
                0x9d002d6c      0x358 c:/program files (x86)/microchip/xc32/v2.05/bin/bin/../../lib/gcc/pic32mx/4.8.3/../../../../pic32mx/lib\libm.a(__strtof.o)
                0x9d002d6c                __strtof

.text.dp32mul   0x9d0030c4      0x32c
 .text.dp32mul  0x9d0030c4      0x32c c:/program files (x86)/microchip/xc32/v2.05/bin/bin/../../lib/gcc/pic32mx/4.8.3/../../../../pic32mx/lib\libm.a(dp32mul.o)
                0x9d0030c4                __muldf3
                0x9d0030c4                dpmul

.dinit          0x9d0033f0      0x320
 .dinit         0x9d0033f0      0x320 data_init

.rodata         0x9d003710      0x2b8
 .rodata        0x9d003710      0x2b8 build/default/debug/_ext/1360937237/thermal_commands.o

.text.APP_Tasks
                0x9d0039c8      0x2a0
 .text.APP_Tasks
                0x9d0039c8      0x2a0 build/default/debug/_ext/1360937237/app.o
                0x9d0039c8                APP_Tasks

.text.fpsubadd  0x9d003c68      0x278
 .text.fpsubadd
                0x9d003c68      0x278 c:/program files (x86)/microchip/xc32/v2.05/bin/bin/../../lib/gcc/pic32mx/4.8.3/../../../../pic32mx/lib\libm.a(fp32subadd.o)
                0x9d003c68                fpsub
                0x9d003c68                __subsf3
                0x9d003c70                __addsf3
                0x9d003c70                fpadd

.text.scale     0x9d003ee0      0x23c
 .text.scale    0x9d003ee0      0x23c c:/program files (x86)/microchip/xc32/v2.05/bin/bin/../../lib/gcc/pic32mx/4.8.3/../../../../pic32mx/lib\libc.a(doprnt_cdfFnopuxX.eo)

.text.fp32div   0x9d00411c      0x230
 .text.fp32div  0x9d00411c      0x230 c:/program files (x86)/microchip/xc32/v2.05/bin/bin/../../lib/gcc/pic32mx/4.8.3/../../../../pic32mx/lib\libm.a(fp32div.o)
                0x9d00411c                fpdiv
                0x9d00411c                __divsf3

.text._USB_DEVICE_ProcessStandardDeviceSetRequests
                0x9d00434c      0x214
 .text._USB_DEVICE_ProcessStandardDeviceSetRequests
                0x9d00434c      0x214 build/default/debug/_ext/308758920/usb_device.o
                0x9d00434c                _USB_DEVICE_ProcessStandardDeviceSetRequests

.text.DRV_USBFS_DEVICE_IRPSubmit
                0x9d004560      0x210
 .text.DRV_USBFS_DEVICE_IRPSubmit
                0x9d004560      0x210 build/default/debug/_ext/2128569739/drv_usbfs_device.o
                0x9d004560                DRV_USBFS_DEVICE_IRPSubmit

.text._USB_DEVICE_ProcessStandardDeviceGetRequests
                0x9d004770      0x20c
 .text._USB_DEVICE_ProcessStandardDeviceGetRequests
                0x9d004770      0x20c build/default/debug/_ext/308758920/usb_device.o
                0x9d004770                _USB_DEVICE_ProcessStandardDeviceGetRequests

.text._USB_DEVICE_EventHandler
                0x9d00497c      0x204
 .text._USB_DEVICE_EventHandler
                0x9d00497c      0x204 build/default/debug/_ext/308758920/usb_device.o
                0x9d00497c                _USB_DEVICE_EventHandler

.text._USB_DEVICE_ControlTransferHandler
                0x9d004b80      0x1fc
 .text._USB_DEVICE_ControlTransferHandler
                0x9d004b80      0x1fc build/default/debug/_ext/308758920/usb_device.o
                0x9d004b80                _USB_DEVICE_ControlTransferHandler

.text.USB_DEVICE_CDC_Write
                0x9d004d7c      0x1cc
 .text.USB_DEVICE_CDC_Write
                0x9d004d7c      0x1cc build/default/debug/_ext/308758920/usb_device_cdc.o
                0x9d004d7c                USB_DEVICE_CDC_Write

.text.fp32mul   0x9d004f48      0x1bc
 .text.fp32mul  0x9d004f48      0x1bc c:/program files (x86)/microchip/xc32/v2.05/bin/bin/../../lib/gcc/pic32mx/4.8.3/../../../../pic32mx/lib\libm.a(fp32mul.o)
                0x9d004f48                fpmul
                0x9d004f48                __mulsf3

.text.DRV_USBFS_DEVICE_EndpointStallClear
                0x9d005104      0x1ac
 .text.DRV_USBFS_DEVICE_EndpointStallClear
                0x9d005104      0x1ac build/default/debug/_ext/2128569739/drv_usbfs_device.o
                0x9d005104                DRV_USBFS_DEVICE_EndpointStallClear

.text.USB_DEVICE_CDC_Read
                0x9d0052b0      0x1ac
 .text.USB_DEVICE_CDC_Read
                0x9d0052b0      0x1ac build/default/debug/_ext/308758920/usb_device_cdc.o
                0x9d0052b0                USB_DEVICE_CDC_Read

.text.DRV_USBFS_DEVICE_EndpointStall
                0x9d00545c      0x19c
 .text.DRV_USBFS_DEVICE_EndpointStall
                0x9d00545c      0x19c build/default/debug/_ext/2128569739/drv_usbfs_device.o
                0x9d00545c                DRV_USBFS_DEVICE_EndpointStall

.text.DRV_USBFS_DEVICE_EndpointEnable
                0x9d0055f8      0x198
 .text.DRV_USBFS_DEVICE_EndpointEnable
                0x9d0055f8      0x198 build/default/debug/_ext/2128569739/drv_usbfs_device.o
                0x9d0055f8                DRV_USBFS_DEVICE_EndpointEnable

.text.AthenaProcessExternal
                0x9d005790      0x18c
 .text.AthenaProcessExternal
                0x9d005790      0x18c build/default/debug/_ext/1548692632/Athena.o
                0x9d005790                AthenaProcessExternal

.text._USB_DEVICE_Ep0ReceiveCompleteCallback
                0x9d00591c      0x184
 .text._USB_DEVICE_Ep0ReceiveCompleteCallback
                0x9d00591c      0x184 build/default/debug/_ext/308758920/usb_device.o
                0x9d00591c                _USB_DEVICE_Ep0ReceiveCompleteCallback

.text._USB_DEVICE_CDC_ACMSetUpPacketHandler
                0x9d005aa0      0x174
 .text._USB_DEVICE_CDC_ACMSetUpPacketHandler
                0x9d005aa0      0x174 build/default/debug/_ext/308758920/usb_device_cdc_acm.o
                0x9d005aa0                _USB_DEVICE_CDC_ACMSetUpPacketHandler

.text.thermal_state_machine
                0x9d005c14      0x174
 .text.thermal_state_machine
                0x9d005c14      0x174 build/default/debug/_ext/1548692632/thermal_states.o
                0x9d005c14                thermal_state_machine

.text.USB_DEVICE_Tasks
                0x9d005d88      0x170
 .text.USB_DEVICE_Tasks
                0x9d005d88      0x170 build/default/debug/_ext/308758920/usb_device.o
                0x9d005d88                USB_DEVICE_Tasks

.text           0x9d005ef8      0x168
 .text          0x9d005ef8      0x168 c:/program files (x86)/microchip/xc32/v2.05/bin/bin/../../lib/gcc/pic32mx/4.8.3/../../../../pic32mx/lib\libpic32.a(memcpy.o)
                0x9d005ef8                memcpy

.rodata         0x9d006060      0x160
 .rodata        0x9d006060      0x160 c:/program files (x86)/microchip/xc32/v2.05/bin/bin/../../lib/gcc/pic32mx/4.8.3/../../../../pic32mx/lib\libc.a(ldpowers.o)
                0x9d006060                _npowers_
                0x9d006110                _powers_

.text.USB_DEVICE_Initialize
                0x9d0061c0      0x15c
 .text.USB_DEVICE_Initialize
                0x9d0061c0      0x15c build/default/debug/_ext/308758920/usb_device.o
                0x9d0061c0                USB_DEVICE_Initialize

.text._USB_DEVICE_CDC_Initialization
                0x9d00631c      0x158
 .text._USB_DEVICE_CDC_Initialization
                0x9d00631c      0x158 build/default/debug/_ext/308758920/usb_device_cdc.o
                0x9d00631c                _USB_DEVICE_CDC_Initialization

.text.process_thermal
                0x9d006474      0x158
 .text.process_thermal
                0x9d006474      0x158 build/default/debug/_ext/1360937237/app_main.o
                0x9d006474                process_thermal

.rodata         0x9d0065cc      0x150
 .rodata        0x9d0065cc      0x150 build/default/debug/_ext/1171490990/usb_device_init_data.o
                0x9d0065cc                usbDevInitData
                0x9d006600                usbMasterDescriptor
                0x9d00662c                stringDescriptors
                0x9d006638                sd002
                0x9d006668                sd001
                0x9d00669c                sd000
                0x9d0066a0                fullSpeedConfigDescSet
                0x9d0066a4                fullSpeedConfigurationDescriptor
                0x9d0066e8                deviceDescriptor
                0x9d0066fc                funcRegistrationTable
                0x9d006710                cdcInit0

.text.fputc     0x9d00671c      0x144
 .text.fputc    0x9d00671c      0x144 c:/program files (x86)/microchip/xc32/v2.05/bin/bin/../../lib/gcc/pic32mx/4.8.3/../../../../pic32mx/lib\libc.a(_fputc_simple.o)
                0x9d00671c                fputc

.text.DRV_USBFS_DEVICE_EndpointDisable
                0x9d006860      0x140
 .text.DRV_USBFS_DEVICE_EndpointDisable
                0x9d006860      0x140 build/default/debug/_ext/2128569739/drv_usbfs_device.o
                0x9d006860                DRV_USBFS_DEVICE_EndpointDisable

.text.DRV_USBFS_DEVICE_IRPCancelAll
                0x9d0069a0      0x13c
 .text.DRV_USBFS_DEVICE_IRPCancelAll
                0x9d0069a0      0x13c build/default/debug/_ext/2128569739/drv_usbfs_device.o
                0x9d0069a0                DRV_USBFS_DEVICE_IRPCancelAll

.text.parse_Thermal
                0x9d006adc      0x12c
 .text.parse_Thermal
                0x9d006adc      0x12c build/default/debug/_ext/1360937237/thermal_commands.o
                0x9d006adc                parse_Thermal

.text._flsbuf   0x9d006c08      0x12c
 .text._flsbuf  0x9d006c08      0x12c c:/program files (x86)/microchip/xc32/v2.05/bin/bin/../../lib/gcc/pic32mx/4.8.3/../../../../pic32mx/lib\libc.a(_flsbuf_simple.o)
                0x9d006c08                _flsbuf

.text.dpcmp     0x9d006d34      0x12c
 .text.dpcmp    0x9d006d34      0x12c c:/program files (x86)/microchip/xc32/v2.05/bin/bin/../../lib/gcc/pic32mx/4.8.3/../../../../pic32mx/lib\libm.a(dpcmp.o)
                0x9d006d34                __gtdf2
                0x9d006d34                __ltdf2
                0x9d006d34                dpcmp
                0x9d006d34                __ledf2
                0x9d006d34                __nedf2
                0x9d006d34                __gedf2
                0x9d006d34                __eqdf2

.text           0x9d006e60      0x120
 .text          0x9d006e60      0x120 c:/program files (x86)/microchip/xc32/v2.05/bin/bin/../../lib/gcc/pic32mx/4.8.3/../../../../pic32mx/lib\libpic32.a(strcmp.o)
                0x9d006e60                strcmp

.text.DRV_USBFS_Initialize
                0x9d006f80      0x11c
 .text.DRV_USBFS_Initialize
                0x9d006f80      0x11c build/default/debug/_ext/2128569739/drv_usbfs.o
                0x9d006f80                DRV_USBFS_Initialize

.text.setread_int
                0x9d00709c      0x11c
 .text.setread_int
                0x9d00709c      0x11c build/default/debug/_ext/1360937237/thermal_commands.o
                0x9d00709c                setread_int

.text.DRV_USBFS_DEVICE_IRPCancel
                0x9d0071b8      0x114
 .text.DRV_USBFS_DEVICE_IRPCancel
                0x9d0071b8      0x114 build/default/debug/_ext/2128569739/drv_usbfs_device.o
                0x9d0071b8                DRV_USBFS_DEVICE_IRPCancel

.text.WriteAthena
                0x9d0072cc      0x114
 .text.WriteAthena
                0x9d0072cc      0x114 build/default/debug/_ext/1548692632/Athena.o
                0x9d0072cc                WriteAthena

.text.CORE_TIMER_Handler
                0x9d0073e0      0x110
 .text.CORE_TIMER_Handler
                0x9d0073e0      0x110 build/default/debug/_ext/1171490990/interrupts.o
                0x9d0073e0                CORE_TIMER_Handler

.text.USB_1_Handler
                0x9d0074f0      0x110
 .text.USB_1_Handler
                0x9d0074f0      0x110 build/default/debug/_ext/1171490990/interrupts.o
                0x9d0074f0                USB_1_Handler

.text.APP_USBDeviceCDCEventHandler
                0x9d007600      0x10c
 .text.APP_USBDeviceCDCEventHandler
                0x9d007600      0x10c build/default/debug/_ext/1360937237/app.o
                0x9d007600                APP_USBDeviceCDCEventHandler

.text.setread_float
                0x9d00770c      0x10c
 .text.setread_float
                0x9d00770c      0x10c build/default/debug/_ext/1360937237/thermal_commands.o
                0x9d00770c                setread_float

.rodata         0x9d007818      0x104
 .rodata        0x9d007818      0x104 c:/program files (x86)/microchip/xc32/v2.05/bin/bin/../../lib/gcc/pic32mx/4.8.3/../../../../pic32mx/lib\libc.a(ctype.o)
                0x9d007818                _ctype

.text.__ldexpf  0x9d00791c      0x104
 .text.__ldexpf
                0x9d00791c      0x104 c:/program files (x86)/microchip/xc32/v2.05/bin/bin/../../lib/gcc/pic32mx/4.8.3/../../../../pic32mx/lib\libe.a(_ldexpf.o)
                0x9d00791c                __ldexpf

.text._USB_DEVICE_ConfigureDevice
                0x9d007a20      0x100
 .text._USB_DEVICE_ConfigureDevice
                0x9d007a20      0x100 build/default/debug/_ext/308758920/usb_device.o
                0x9d007a20                _USB_DEVICE_ConfigureDevice

.text._USB_DEVICE_ProcessStandardEndpointRequest
                0x9d007b20      0x100
 .text._USB_DEVICE_ProcessStandardEndpointRequest
                0x9d007b20      0x100 build/default/debug/_ext/308758920/usb_device.o
                0x9d007b20                _USB_DEVICE_ProcessStandardEndpointRequest

.text._USB_DEVICE_CDC_ControlTransferHandler
                0x9d007c20       0xf8
 .text._USB_DEVICE_CDC_ControlTransferHandler
                0x9d007c20       0xf8 build/default/debug/_ext/308758920/usb_device_cdc.o
                0x9d007c20                _USB_DEVICE_CDC_ControlTransferHandler

.text.AthenaExtractTemp
                0x9d007d18       0xf8
 .text.AthenaExtractTemp
                0x9d007d18       0xf8 build/default/debug/_ext/1548692632/Athena.o
                0x9d007d18                AthenaExtractTemp

.rodata         0x9d007e10       0xf0
 .rodata        0x9d007e10       0xf0 c:/program files (x86)/microchip/xc32/v2.05/bin/bin/../../lib/gcc/pic32mx/4.8.3/../../../../pic32mx/lib\libc.a(doprnt_cdfFnopuxX.eo)

.text.__fixdfdi
                0x9d007f00       0xe8
 .text.__fixdfdi
                0x9d007f00       0xe8 c:/program files (x86)/microchip/xc32/v2.05/bin/bin/../../lib/gcc/pic32mx/4.8.3/../../../../pic32mx/lib\libe.a(_fixdfdi.o)
                0x9d007f00                __fixdfdi

.text.APP_USBDeviceEventHandler
                0x9d007fe8       0xe0
 .text.APP_USBDeviceEventHandler
                0x9d007fe8       0xe0 build/default/debug/_ext/1360937237/app.o
                0x9d007fe8                APP_USBDeviceEventHandler

.text.general_exception
                0x9d0080c8       0xdc
 .text.general_exception
                0x9d0080c8       0xdc c:/program files (x86)/microchip/xc32/v2.05/bin/bin/../../lib/gcc/pic32mx/4.8.3/../../../../pic32mx/lib\libpic32.a(general-exception.o)
                0x9d0080c8                _general_exception_context

.text._DRV_USBFS_DEVICE_EndpointBDTEntryArm
                0x9d0081a4       0xd8
 .text._DRV_USBFS_DEVICE_EndpointBDTEntryArm
                0x9d0081a4       0xd8 build/default/debug/_ext/2128569739/drv_usbfs_device.o
                0x9d0081a4                _DRV_USBFS_DEVICE_EndpointBDTEntryArm

.text._USB_DEVICE_GetStringDescriptorRequestProcess
                0x9d00827c       0xd4
 .text._USB_DEVICE_GetStringDescriptorRequestProcess
                0x9d00827c       0xd4 build/default/debug/_ext/308758920/usb_device.o
                0x9d00827c                _USB_DEVICE_GetStringDescriptorRequestProcess

.text.SYS_Initialize
                0x9d008350       0xd0
 .text.SYS_Initialize
                0x9d008350       0xd0 build/default/debug/_ext/1171490990/initialization.o
                0x9d008350                SYS_Initialize

.text._USB_DEVICE_Ep0TransmitCompleteCallback
                0x9d008420       0xc0
 .text._USB_DEVICE_Ep0TransmitCompleteCallback
                0x9d008420       0xc0 build/default/debug/_ext/308758920/usb_device.o
                0x9d008420                _USB_DEVICE_Ep0TransmitCompleteCallback

.text.thermal_fan
                0x9d0084e0       0xbc
 .text.thermal_fan
                0x9d0084e0       0xbc build/default/debug/_ext/1360937237/app_main.o
                0x9d0084e0                thermal_fan

.text.get_entry
                0x9d00859c       0xb0
 .text.get_entry
                0x9d00859c       0xb0 build/default/debug/_ext/1360937237/thermal_commands.o
                0x9d00859c                get_entry

.text.parse_Athena_packet
                0x9d00864c       0xac
 .text.parse_Athena_packet
                0x9d00864c       0xac build/default/debug/_ext/1360937237/D32.o
                0x9d00864c                parse_Athena_packet

.text.process_RX_CLI
                0x9d0086f8       0xac
 .text.process_RX_CLI
                0x9d0086f8       0xac build/default/debug/_ext/1360937237/D32.o
                0x9d0086f8                process_RX_CLI

.text.fptodp    0x9d0087a4       0xac
 .text.fptodp   0x9d0087a4       0xac c:/program files (x86)/microchip/xc32/v2.05/bin/bin/../../lib/gcc/pic32mx/4.8.3/../../../../pic32mx/lib\libm.a(fptodp.o)
                0x9d0087a4                fptodp
                0x9d0087a4                __extendsfdf2

.text._USB_DEVICE_DeInitializeAllFunctionDrivers
                0x9d008850       0xa8
 .text._USB_DEVICE_DeInitializeAllFunctionDrivers
                0x9d008850       0xa8 build/default/debug/_ext/308758920/usb_device.o
                0x9d008850                _USB_DEVICE_DeInitializeAllFunctionDrivers

.text._USB_DEVICE_CDC_ReadIRPCallback
                0x9d0088f8       0xa8
 .text._USB_DEVICE_CDC_ReadIRPCallback
                0x9d0088f8       0xa8 build/default/debug/_ext/308758920/usb_device_cdc.o
                0x9d0088f8                _USB_DEVICE_CDC_ReadIRPCallback

.text._USB_DEVICE_CDC_WriteIRPCallback
                0x9d0089a0       0xa8
 .text._USB_DEVICE_CDC_WriteIRPCallback
                0x9d0089a0       0xa8 build/default/debug/_ext/308758920/usb_device_cdc.o
                0x9d0089a0                _USB_DEVICE_CDC_WriteIRPCallback

.text.atoi      0x9d008a48       0xa8
 .text.atoi     0x9d008a48       0xa8 c:/program files (x86)/microchip/xc32/v2.05/bin/bin/../../lib/gcc/pic32mx/4.8.3/../../../../pic32mx/lib\libc.a(atoi.o)
                0x9d008a48                atoi

.text.libm      0x9d008af0       0xa8
 .text.libm     0x9d008af0       0xa8 c:/program files (x86)/microchip/xc32/v2.05/bin/bin/../../lib/gcc/pic32mx/4.8.3/../../../../pic32mx/lib\libm.a(dpfrexp.o)
                0x9d008af0                dpfrexp
                0x9d008af0                frexp
                0x9d008af0                frexpl

.text.AthenaInit
                0x9d008b98       0xa4
 .text.AthenaInit
                0x9d008b98       0xa4 build/default/debug/_ext/1548692632/Athena.o
                0x9d008b98                AthenaInit

.text.CORE_TIMER_InterruptHandler
                0x9d008c3c       0x9c
 .text.CORE_TIMER_InterruptHandler
                0x9d008c3c       0x9c build/default/debug/_ext/1249264884/plib_coretimer.o
                0x9d008c3c                CORE_TIMER_InterruptHandler

.text._USB_DEVICE_ForwardControlXfrToFunction
                0x9d008cd8       0x9c
 .text._USB_DEVICE_ForwardControlXfrToFunction
                0x9d008cd8       0x9c build/default/debug/_ext/308758920/usb_device.o
                0x9d008cd8                _USB_DEVICE_ForwardControlXfrToFunction

.text.fpcmp     0x9d008d74       0x9c
 .text.fpcmp    0x9d008d74       0x9c c:/program files (x86)/microchip/xc32/v2.05/bin/bin/../../lib/gcc/pic32mx/4.8.3/../../../../pic32mx/lib\libm.a(fpcmp.o)
                0x9d008d74                __nesf2
                0x9d008d74                __gtsf2
                0x9d008d74                __eqsf2
                0x9d008d74                __ltsf2
                0x9d008d74                fpcmp
                0x9d008d74                __gesf2
                0x9d008d74                __lesf2

.text.write     0x9d008e10       0x9c
 .text.write    0x9d008e10       0x9c c:/program files (x86)/microchip/xc32/v2.05/bin/bin/../../lib/gcc/pic32mx/4.8.3/../../../../pic32mx/lib\libpic32.a(write.o)
                0x9d008e10                write

.text.PlaceTemp
                0x9d008eac       0x98
 .text.PlaceTemp
                0x9d008eac       0x98 build/default/debug/_ext/1548692632/Athena.o
                0x9d008eac                PlaceTemp

.text.help      0x9d008f44       0x8c
 .text.help     0x9d008f44       0x8c build/default/debug/_ext/1360937237/thermal_commands.o
                0x9d008f44                help

.text.__orderdf2
                0x9d008fd0       0x8c
 .text.__orderdf2
                0x9d008fd0       0x8c c:/program files (x86)/microchip/xc32/v2.05/bin/bin/../../lib/gcc/pic32mx/4.8.3/../../../../pic32mx/lib\libe.a(_orderdf2.o)
                0x9d008fd0                __orderdf2

.text.parse_General_packet
                0x9d00905c       0x88
 .text.parse_General_packet
                0x9d00905c       0x88 build/default/debug/_ext/1360937237/D32.o
                0x9d00905c                parse_General_packet

.text.proccess_command
                0x9d0090e4       0x88
 .text.proccess_command
                0x9d0090e4       0x88 build/default/debug/_ext/1360937237/D32.o
                0x9d0090e4                proccess_command

.text._USB_DEVICE_GetFunctionDriverEntryByInterface
                0x9d00916c       0x84
 .text._USB_DEVICE_GetFunctionDriverEntryByInterface
                0x9d00916c       0x84 build/default/debug/_ext/308758920/usb_device.o
                0x9d00916c                _USB_DEVICE_GetFunctionDriverEntryByInterface

.text._USB_DEVICE_FindEndpoint
                0x9d0091f0       0x84
 .text._USB_DEVICE_FindEndpoint
                0x9d0091f0       0x84 build/default/debug/_ext/308758920/usb_device.o
                0x9d0091f0                _USB_DEVICE_FindEndpoint

.text.USB_DEVICE_ControlSend
                0x9d009274       0x84
 .text.USB_DEVICE_ControlSend
                0x9d009274       0x84 build/default/debug/_ext/308758920/usb_device.o
                0x9d009274                USB_DEVICE_ControlSend

.text.__fixunsdfdi
                0x9d0092f8       0x80
 .text.__fixunsdfdi
                0x9d0092f8       0x80 c:/program files (x86)/microchip/xc32/v2.05/bin/bin/../../lib/gcc/pic32mx/4.8.3/../../../../pic32mx/lib\libe.a(_fixunsdfdi.o)
                0x9d0092f8                __fixunsdfdi

.text.USB_DEVICE_ControlStatus
                0x9d009378       0x7c
 .text.USB_DEVICE_ControlStatus
                0x9d009378       0x7c build/default/debug/_ext/308758920/usb_device.o
                0x9d009378                USB_DEVICE_ControlStatus

.text.Wait      0x9d0093f4       0x7c
 .text.Wait     0x9d0093f4       0x7c build/default/debug/_ext/1360937237/app_main.o
                0x9d0093f4                Wait

.text.AthenaGetStatus
                0x9d009470       0x78
 .text.AthenaGetStatus
                0x9d009470       0x78 build/default/debug/_ext/1548692632/Athena.o
                0x9d009470                AthenaGetStatus

.text.litodp    0x9d0094e8       0x78
 .text.litodp   0x9d0094e8       0x78 c:/program files (x86)/microchip/xc32/v2.05/bin/bin/../../lib/gcc/pic32mx/4.8.3/../../../../pic32mx/lib\libm.a(litodp.o)
                0x9d0094e8                litodp
                0x9d0094e8                __floatsidf

.text.DRV_USBFS_DEVICE_Attach
                0x9d009560       0x70
 .text.DRV_USBFS_DEVICE_Attach
                0x9d009560       0x70 build/default/debug/_ext/2128569739/drv_usbfs_device.o
                0x9d009560                DRV_USBFS_DEVICE_Attach

.text._USB_DEVICE_CDC_Deinitialization
                0x9d0095d0       0x6c
 .text._USB_DEVICE_CDC_Deinitialization
                0x9d0095d0       0x6c build/default/debug/_ext/308758920/usb_device_cdc.o
                0x9d0095d0                _USB_DEVICE_CDC_Deinitialization

.text.APP_Initialize
                0x9d00963c       0x6c
 .text.APP_Initialize
                0x9d00963c       0x6c build/default/debug/_ext/1360937237/app.o
                0x9d00963c                APP_Initialize

.text._DRV_USBFS_DEVICE_IRPQueueFlush
                0x9d0096a8       0x68
 .text._DRV_USBFS_DEVICE_IRPQueueFlush
                0x9d0096a8       0x68 build/default/debug/_ext/2128569739/drv_usbfs_device.o
                0x9d0096a8                _DRV_USBFS_DEVICE_IRPQueueFlush

.text.CORETIMER_Start
                0x9d009710       0x68
 .text.CORETIMER_Start
                0x9d009710       0x68 build/default/debug/_ext/1249264884/plib_coretimer.o
                0x9d009710                CORETIMER_Start

.text.GPIO_Initialize
                0x9d009778       0x68
 .text.GPIO_Initialize
                0x9d009778       0x68 build/default/debug/_ext/1865254177/plib_gpio.o
                0x9d009778                GPIO_Initialize

.text._sprintf_cdfFnopuxX
                0x9d0097e0       0x68
 .text._sprintf_cdfFnopuxX
                0x9d0097e0       0x68 c:/program files (x86)/microchip/xc32/v2.05/bin/bin/../../lib/gcc/pic32mx/4.8.3/../../../../pic32mx/lib\libc.a(sprintf_cdfFnopuxX.eo)
                0x9d0097e0                _sprintf_cdfFnopuxX
                0x9d0097e0                _sprintf_fF
                0x9d0097e0                _sprintf_cdnopuxX

.text           0x9d009848       0x64
 .text          0x9d009848       0x64 c:/program files (x86)/microchip/xc32/v2.05/bin/bin/../../lib/gcc/pic32mx/4.8.3\libgcc.a(_floatundidf.o)
                0x9d009848                __floatundidf

.text.DRV_USBFS_Tasks_ISR
                0x9d0098ac       0x60
 .text.DRV_USBFS_Tasks_ISR
                0x9d0098ac       0x60 build/default/debug/_ext/2128569739/drv_usbfs.o
                0x9d0098ac                DRV_USBFS_Tasks_ISR

.text.DRV_USBFS_ClientEventCallBackSet
                0x9d00990c       0x60
 .text.DRV_USBFS_ClientEventCallBackSet
                0x9d00990c       0x60 build/default/debug/_ext/2128569739/drv_usbfs.o
                0x9d00990c                DRV_USBFS_ClientEventCallBackSet

.text.CORE_SOFTWARE_0_Handler
                0x9d00996c       0x60
 .text.CORE_SOFTWARE_0_Handler
                0x9d00996c       0x60 build/default/debug/_ext/1171490990/interrupts.o
                0x9d00996c                CORE_SOFTWARE_0_Handler

.text.TIMER_1_Handler
                0x9d0099cc       0x60
 .text.TIMER_1_Handler
                0x9d0099cc       0x60 build/default/debug/_ext/1171490990/interrupts.o
                0x9d0099cc                TIMER_1_Handler

.text.main      0x9d009a2c       0x60
 .text.main     0x9d009a2c       0x60 build/default/debug/_ext/1360937237/main.o
                0x9d009a2c                main

.text.data_to_send
                0x9d009a8c       0x60
 .text.data_to_send
                0x9d009a8c       0x60 build/default/debug/_ext/1360937237/D32.o
                0x9d009a8c                data_to_send

.text.AthenaSetSetTemp
                0x9d009aec       0x60
 .text.AthenaSetSetTemp
                0x9d009aec       0x60 build/default/debug/_ext/1548692632/Athena.o
                0x9d009aec                AthenaSetSetTemp

.text.sitofp    0x9d009b4c       0x60
 .text.sitofp   0x9d009b4c       0x60 c:/program files (x86)/microchip/xc32/v2.05/bin/bin/../../lib/gcc/pic32mx/4.8.3/../../../../pic32mx/lib\libm.a(sitofp.o)
                0x9d009b4c                __floatsisf
                0x9d009b4c                litofp
                0x9d009b4c                sitofp

.text.USB_DEVICE_EndpointEnable
                0x9d009bac       0x5c
 .text.USB_DEVICE_EndpointEnable
                0x9d009bac       0x5c build/default/debug/_ext/308758920/usb_device.o
                0x9d009bac                USB_DEVICE_EndpointEnable

.text.AthenaGetSetTemp
                0x9d009c08       0x5c
 .text.AthenaGetSetTemp
                0x9d009c08       0x5c build/default/debug/_ext/1548692632/Athena.o
                0x9d009c08                AthenaGetSetTemp

.text.SYS_INT_SourceDisable
                0x9d009c64       0x58
 .text.SYS_INT_SourceDisable
                0x9d009c64       0x58 build/default/debug/_ext/1881668453/sys_int.o
                0x9d009c64                SYS_INT_SourceDisable

.text.USB_DEVICE_EventHandlerSet
                0x9d009cbc       0x58
 .text.USB_DEVICE_EventHandlerSet
                0x9d009cbc       0x58 build/default/debug/_ext/308758920/usb_device.o
                0x9d009cbc                USB_DEVICE_EventHandlerSet

.text.USB_DEVICE_IRPSubmit
                0x9d009d14       0x58
 .text.USB_DEVICE_IRPSubmit
                0x9d009d14       0x58 build/default/debug/_ext/308758920/usb_device.o
                0x9d009d14                USB_DEVICE_IRPSubmit

.text.Add_TX_CLI_string
                0x9d009d6c       0x58
 .text.Add_TX_CLI_string
                0x9d009d6c       0x58 build/default/debug/_ext/1360937237/D32.o
                0x9d009d6c                Add_TX_CLI_string

.text.AthenaGetTemp
                0x9d009dc4       0x58
 .text.AthenaGetTemp
                0x9d009dc4       0x58 build/default/debug/_ext/1548692632/Athena.o
                0x9d009dc4                AthenaGetTemp

.text.main_entry
                0x9d009e1c       0x54
 .text.main_entry
                0x9d009e1c       0x54 c:/program files (x86)/microchip/xc32/v2.05/bin/bin/../../lib/gcc/pic32mx/4.8.3/../../../../pic32mx/lib/./proc/32MX440F256H/crt0_mips32r2.o
                0x9d009e50                __crt0_exit

.text.USB_DEVICE_Detach
                0x9d009e70       0x50
 .text.USB_DEVICE_Detach
                0x9d009e70       0x50 build/default/debug/_ext/308758920/usb_device.o
                0x9d009e70                USB_DEVICE_Detach

.text.stage_Temp
                0x9d009ec0       0x50
 .text.stage_Temp
                0x9d009ec0       0x50 build/default/debug/_ext/1360937237/thermal_commands.o
                0x9d009ec0                stage_Temp

.text.DRV_USBFS_DEVICE_Detach
                0x9d009f10       0x4c
 .text.DRV_USBFS_DEVICE_Detach
                0x9d009f10       0x4c build/default/debug/_ext/2128569739/drv_usbfs_device.o
                0x9d009f10                DRV_USBFS_DEVICE_Detach

.text.DRV_USBFS_DEVICE_EndpointIsEnabled
                0x9d009f5c       0x4c
 .text.DRV_USBFS_DEVICE_EndpointIsEnabled
                0x9d009f5c       0x4c build/default/debug/_ext/2128569739/drv_usbfs_device.o
                0x9d009f5c                DRV_USBFS_DEVICE_EndpointIsEnabled

.text.DRV_USBFS_DEVICE_EndpointIsStalled
                0x9d009fa8       0x4c
 .text.DRV_USBFS_DEVICE_EndpointIsStalled
                0x9d009fa8       0x4c build/default/debug/_ext/2128569739/drv_usbfs_device.o
                0x9d009fa8                DRV_USBFS_DEVICE_EndpointIsStalled

.text.USB_DEVICE_Open
                0x9d009ff4       0x4c
 .text.USB_DEVICE_Open
                0x9d009ff4       0x4c build/default/debug/_ext/308758920/usb_device.o
                0x9d009ff4                USB_DEVICE_Open

.text._USB_DEVICE_RedirectControlXfrToClient
                0x9d00a040       0x4c
 .text._USB_DEVICE_RedirectControlXfrToClient
                0x9d00a040       0x4c build/default/debug/_ext/308758920/usb_device.o
                0x9d00a040                _USB_DEVICE_RedirectControlXfrToClient

.text._USB_DEVICE_CDC_EndpointDisable
                0x9d00a08c       0x4c
 .text._USB_DEVICE_CDC_EndpointDisable
                0x9d00a08c       0x4c build/default/debug/_ext/308758920/usb_device_cdc.o
                0x9d00a08c                _USB_DEVICE_CDC_EndpointDisable

.text.USB_DEVICE_Attach
                0x9d00a0d8       0x48
 .text.USB_DEVICE_Attach
                0x9d00a0d8       0x48 build/default/debug/_ext/308758920/usb_device.o
                0x9d00a0d8                USB_DEVICE_Attach

.text.USB_DEVICE_EndpointDisable
                0x9d00a120       0x48
 .text.USB_DEVICE_EndpointDisable
                0x9d00a120       0x48 build/default/debug/_ext/308758920/usb_device.o
                0x9d00a120                USB_DEVICE_EndpointDisable

.text.USB_DEVICE_ControlReceive
                0x9d00a168       0x48
 .text.USB_DEVICE_ControlReceive
                0x9d00a168       0x48 build/default/debug/_ext/308758920/usb_device.o
                0x9d00a168                USB_DEVICE_ControlReceive

.text.USB_DEVICE_IRPCancelAll
                0x9d00a1b0       0x48
 .text.USB_DEVICE_IRPCancelAll
                0x9d00a1b0       0x48 build/default/debug/_ext/308758920/usb_device.o
                0x9d00a1b0                USB_DEVICE_IRPCancelAll

.vector_default
                0x9d00a1f8       0x48
 .vector_default
                0x9d00a1f8       0x48 c:/program files (x86)/microchip/xc32/v2.05/bin/bin/../../lib/gcc/pic32mx/4.8.3/../../../../pic32mx/lib\libpic32.a(defaultinterrupt.o)
                0x9d00a1f8                _DefaultInterrupt

.text.DRV_USBFS_Open
                0x9d00a240       0x44
 .text.DRV_USBFS_Open
                0x9d00a240       0x44 build/default/debug/_ext/2128569739/drv_usbfs.o
                0x9d00a240                DRV_USBFS_Open

.text           0x9d00a284       0x88
 .text          0x9d00a284       0x44 c:/program files (x86)/microchip/xc32/v2.05/bin/bin/../../lib/gcc/pic32mx/4.8.3/../../../../pic32mx/lib\pic32_software_reset.o
                0x9d00a284                __pic32_software_reset
 .text          0x9d00a2c8       0x44 c:/program files (x86)/microchip/xc32/v2.05/bin/bin/../../lib/gcc/pic32mx/4.8.3\libgcc.a(floatunsidf.o)
                0x9d00a2c8                __floatunsidf

.text.CORETIMER_Initialize
                0x9d00a30c       0x40
 .text.CORETIMER_Initialize
                0x9d00a30c       0x40 build/default/debug/_ext/1249264884/plib_coretimer.o
                0x9d00a30c                CORETIMER_Initialize

.text.APP_StateReset
                0x9d00a34c       0x40
 .text.APP_StateReset
                0x9d00a34c       0x40 build/default/debug/_ext/1360937237/app.o
                0x9d00a34c                APP_StateReset

.text.init_thermal_controller
                0x9d00a38c       0x40
 .text.init_thermal_controller
                0x9d00a38c       0x40 build/default/debug/_ext/1360937237/app_main.o
                0x9d00a38c                init_thermal_controller

.text.Restart_Controller
                0x9d00a3cc       0x40
 .text.Restart_Controller
                0x9d00a3cc       0x40 build/default/debug/_ext/1548692632/thermal_states.o
                0x9d00a3cc                Restart_Controller

.text.EVIC_Initialize
                0x9d00a40c       0x38
 .text.EVIC_Initialize
                0x9d00a40c       0x38 build/default/debug/_ext/1865200349/plib_evic.o
                0x9d00a40c                EVIC_Initialize

.text.UART1_Initialize
                0x9d00a444       0x38
 .text.UART1_Initialize
                0x9d00a444       0x38 build/default/debug/_ext/1865657120/plib_uart1.o
                0x9d00a444                UART1_Initialize

.text.UART2_Initialize
                0x9d00a47c       0x38
 .text.UART2_Initialize
                0x9d00a47c       0x38 build/default/debug/_ext/1865657120/plib_uart2.o
                0x9d00a47c                UART2_Initialize

.text.USB_DEVICE_CDC_EventHandlerSet
                0x9d00a4b4       0x38
 .text.USB_DEVICE_CDC_EventHandlerSet
                0x9d00a4b4       0x38 build/default/debug/_ext/308758920/usb_device_cdc.o
                0x9d00a4b4                USB_DEVICE_CDC_EventHandlerSet

.text.Add_RX_CLI
                0x9d00a4ec       0x38
 .text.Add_RX_CLI
                0x9d00a4ec       0x38 build/default/debug/_ext/1360937237/D32.o
                0x9d00a4ec                Add_RX_CLI

.text.Add_TX_CLI
                0x9d00a524       0x38
 .text.Add_TX_CLI
                0x9d00a524       0x38 build/default/debug/_ext/1360937237/D32.o
                0x9d00a524                Add_TX_CLI

.text.DRV_USBFS_DEVICE_SOFNumberGet
                0x9d00a55c       0x34
 .text.DRV_USBFS_DEVICE_SOFNumberGet
                0x9d00a55c       0x34 build/default/debug/_ext/2128569739/drv_usbfs_device.o
                0x9d00a55c                DRV_USBFS_DEVICE_SOFNumberGet

.text.get_TX_CLI
                0x9d00a590       0x34
 .text.get_TX_CLI
                0x9d00a590       0x34 build/default/debug/_ext/1360937237/D32.o
                0x9d00a590                get_TX_CLI

.text.get_RX_CLI
                0x9d00a5c4       0x34
 .text.get_RX_CLI
                0x9d00a5c4       0x34 build/default/debug/_ext/1360937237/D32.o
                0x9d00a5c4                get_RX_CLI

.text.init_thermal_leds
                0x9d00a5f8       0x30
 .text.init_thermal_leds
                0x9d00a5f8       0x30 build/default/debug/_ext/1548692632/thermal_states.o
                0x9d00a5f8                init_thermal_leds

.text.DRV_USBFS_Close
                0x9d00a628       0x2c
 .text.DRV_USBFS_Close
                0x9d00a628       0x2c build/default/debug/_ext/2128569739/drv_usbfs.o
                0x9d00a628                DRV_USBFS_Close

.text._DRV_USBFS_DEVICE_Initialize
                0x9d00a654       0x2c
 .text._DRV_USBFS_DEVICE_Initialize
                0x9d00a654       0x2c build/default/debug/_ext/2128569739/drv_usbfs_device.o
                0x9d00a654                _DRV_USBFS_DEVICE_Initialize

.rodata         0x9d00a680       0x2c
 .rodata        0x9d00a680       0x2c build/default/debug/_ext/1171490990/initialization.o
                0x9d00a680                drvUSBFSInit

.text.SYS_Tasks
                0x9d00a6ac       0x2c
 .text.SYS_Tasks
                0x9d00a6ac       0x2c build/default/debug/_ext/1171490990/tasks.o
                0x9d00a6ac                SYS_Tasks

.text.tick_core_timer
                0x9d00a6d8       0x2c
 .text.tick_core_timer
                0x9d00a6d8       0x2c build/default/debug/_ext/1360937237/app_main.o
                0x9d00a6d8                tick_core_timer

.text.DRV_USBFS_DEVICE_AddressSet
                0x9d00a704       0x28
 .text.DRV_USBFS_DEVICE_AddressSet
                0x9d00a704       0x28 build/default/debug/_ext/2128569739/drv_usbfs_device.o
                0x9d00a704                DRV_USBFS_DEVICE_AddressSet

.text.DRV_USBFS_DEVICE_RemoteWakeupStart
                0x9d00a72c       0x28
 .text.DRV_USBFS_DEVICE_RemoteWakeupStart
                0x9d00a72c       0x28 build/default/debug/_ext/2128569739/drv_usbfs_device.o
                0x9d00a72c                DRV_USBFS_DEVICE_RemoteWakeupStart

.text.DRV_USBFS_DEVICE_RemoteWakeupStop
                0x9d00a754       0x28
 .text.DRV_USBFS_DEVICE_RemoteWakeupStop
                0x9d00a754       0x28 build/default/debug/_ext/2128569739/drv_usbfs_device.o
                0x9d00a754                DRV_USBFS_DEVICE_RemoteWakeupStop

.text.EVIC_SourceEnable
                0x9d00a77c       0x28
 .text.EVIC_SourceEnable
                0x9d00a77c       0x28 build/default/debug/_ext/1865200349/plib_evic.o
                0x9d00a77c                EVIC_SourceEnable

.text.EVIC_SourceDisable
                0x9d00a7a4       0x28
 .text.EVIC_SourceDisable
                0x9d00a7a4       0x28 build/default/debug/_ext/1865200349/plib_evic.o
                0x9d00a7a4                EVIC_SourceDisable

.text.EVIC_SourceStatusClear
                0x9d00a7cc       0x28
 .text.EVIC_SourceStatusClear
                0x9d00a7cc       0x28 build/default/debug/_ext/1865200349/plib_evic.o
                0x9d00a7cc                EVIC_SourceStatusClear

.text._USB_DEVICE_ClientHandleValidate
                0x9d00a7f4       0x28
 .text._USB_DEVICE_ClientHandleValidate
                0x9d00a7f4       0x28 build/default/debug/_ext/308758920/usb_device.o
                0x9d00a7f4                _USB_DEVICE_ClientHandleValidate

.text._general_exception_handler
                0x9d00a81c       0x28
 .text._general_exception_handler
                0x9d00a81c       0x28 build/default/debug/_ext/1171490990/exceptions.o
                0x9d00a81c                _general_exception_handler

.text._bootstrap_exception_handler
                0x9d00a844       0x28
 .text._bootstrap_exception_handler
                0x9d00a844       0x28 build/default/debug/_ext/1171490990/exceptions.o
                0x9d00a844                _bootstrap_exception_handler

.text.ShutDownStage
                0x9d00a86c       0x28
 .text.ShutDownStage
                0x9d00a86c       0x28 build/default/debug/_ext/1548692632/thermal_states.o
                0x9d00a86c                ShutDownStage

.text.set_overheat_fluid_led
                0x9d00a894       0x28
 .text.set_overheat_fluid_led
                0x9d00a894       0x28 build/default/debug/_ext/1548692632/thermal_states.o
                0x9d00a894                set_overheat_fluid_led

.text.EVIC_SourceIsEnabled
                0x9d00a8bc       0x24
 .text.EVIC_SourceIsEnabled
                0x9d00a8bc       0x24 build/default/debug/_ext/1865200349/plib_evic.o
                0x9d00a8bc                EVIC_SourceIsEnabled

.text.EVIC_INT_Restore
                0x9d00a8e0       0x24
 .text.EVIC_INT_Restore
                0x9d00a8e0       0x24 build/default/debug/_ext/1865200349/plib_evic.o
                0x9d00a8e0                EVIC_INT_Restore

.text.toupper   0x9d00a904       0x24
 .text.toupper  0x9d00a904       0x24 c:/program files (x86)/microchip/xc32/v2.05/bin/bin/../../lib/gcc/pic32mx/4.8.3/../../../../pic32mx/lib\libc.a(ctypef.o)
                0x9d00a904                toupper

.text.EVIC_INT_Disable
                0x9d00a928       0x20
 .text.EVIC_INT_Disable
                0x9d00a928       0x20 build/default/debug/_ext/1865200349/plib_evic.o
                0x9d00a928                EVIC_INT_Disable

.text.UART2_WriteByte
                0x9d00a948       0x20
 .text.UART2_WriteByte
                0x9d00a948       0x20 build/default/debug/_ext/1865657120/plib_uart2.o
                0x9d00a948                UART2_WriteByte

.text._USB_DEVICE_CDC_GlobalInitialize
                0x9d00a968       0x20
 .text._USB_DEVICE_CDC_GlobalInitialize
                0x9d00a968       0x20 build/default/debug/_ext/308758920/usb_device_cdc.o
                0x9d00a968                _USB_DEVICE_CDC_GlobalInitialize

.rodata         0x9d00a990       0x20
 .rodata        0x9d00a990       0x20 build/default/debug/_ext/1360937237/app.o
                0x9d00a990                switchPromptUSB

.text.ShutDown  0x9d00a9b0       0x20
 .text.ShutDown
                0x9d00a9b0       0x20 build/default/debug/_ext/1360937237/app_main.o
                0x9d00a9b0                ShutDown

.text.set_high_fluid_led
                0x9d00a9d0       0x20
 .text.set_high_fluid_led
                0x9d00a9d0       0x20 build/default/debug/_ext/1548692632/thermal_states.o
                0x9d00a9d0                set_high_fluid_led

.text.set_low_fluid_led
                0x9d00a9f0       0x20
 .text.set_low_fluid_led
                0x9d00a9f0       0x20 build/default/debug/_ext/1548692632/thermal_states.o
                0x9d00a9f0                set_low_fluid_led

.text.clr_low_fluid_led
                0x9d00aa10       0x20
 .text.clr_low_fluid_led
                0x9d00aa10       0x20 build/default/debug/_ext/1548692632/thermal_states.o
                0x9d00aa10                clr_low_fluid_led

.text.init_power_supply
                0x9d00aa30       0x20
 .text.init_power_supply
                0x9d00aa30       0x20 build/default/debug/_ext/1548692632/thermal_states.o
                0x9d00aa30                init_power_supply

.text.DRV_USBFS_USB_Handler
                0x9d00aa50       0x1c
 .text.DRV_USBFS_USB_Handler
                0x9d00aa50       0x1c build/default/debug/_ext/2128569739/drv_usbfs.o
                0x9d00aa50                DRV_USBFS_USB_Handler

.text.CLK_Initialize
                0x9d00aa6c       0x1c
 .text.CLK_Initialize
                0x9d00aa6c       0x1c build/default/debug/_ext/60165520/plib_clk.o
                0x9d00aa6c                CLK_Initialize

.text.SYS_INT_Disable
                0x9d00aa88       0x1c
 .text.SYS_INT_Disable
                0x9d00aa88       0x1c build/default/debug/_ext/1881668453/sys_int.o
                0x9d00aa88                SYS_INT_Disable

.text.SYS_INT_Restore
                0x9d00aaa4       0x1c
 .text.SYS_INT_Restore
                0x9d00aaa4       0x1c build/default/debug/_ext/1881668453/sys_int.o
                0x9d00aaa4                SYS_INT_Restore

.text.timeout_handler
                0x9d00aac0       0x1c
 .text.timeout_handler
                0x9d00aac0       0x1c build/default/debug/_ext/1360937237/main.o
                0x9d00aac0                timeout_handler

.text.atof      0x9d00aadc       0x1c
 .text.atof     0x9d00aadc       0x1c c:/program files (x86)/microchip/xc32/v2.05/bin/bin/../../lib/gcc/pic32mx/4.8.3/../../../../pic32mx/lib\libc.a(atof.o)
                0x9d00aadc                atof

.text.strtof    0x9d00aaf8       0x1c
 .text.strtof   0x9d00aaf8       0x1c c:/program files (x86)/microchip/xc32/v2.05/bin/bin/../../lib/gcc/pic32mx/4.8.3/../../../../pic32mx/lib\libc.a(strtof.o)
                0x9d00aaf8                strtof

.text.APP_ProcessSwitchPress
                0x9d00ab14       0x18
 .text.APP_ProcessSwitchPress
                0x9d00ab14       0x18 build/default/debug/_ext/1360937237/app.o
                0x9d00ab14                APP_ProcessSwitchPress

.text           0x9d00ab2c       0x18
 .text          0x9d00ab2c       0x18 c:/program files (x86)/microchip/xc32/v2.05/bin/bin/../../lib/gcc/pic32mx/4.8.3/../../../../pic32mx/lib\libpic32.a(default-nmi-handler.o)
                0x9d00ab2c                _nmi_handler

.rodata         0x9d00ab44       0x18
 .rodata        0x9d00ab44       0x18 c:/program files (x86)/microchip/xc32/v2.05/bin/bin/../../lib/gcc/pic32mx/4.8.3/../../../../pic32mx/lib\libm.a(__strtof.o)

.text.DRV_USBFS_DEVICE_CurrentSpeedGet
                0x9d00ab5c       0x14
 .text.DRV_USBFS_DEVICE_CurrentSpeedGet
                0x9d00ab5c       0x14 build/default/debug/_ext/2128569739/drv_usbfs_device.o
                0x9d00ab5c                DRV_USBFS_DEVICE_CurrentSpeedGet

.text.CORETIMER_CallbackSet
                0x9d00ab70       0x14
 .text.CORETIMER_CallbackSet
                0x9d00ab70       0x14 build/default/debug/_ext/1249264884/plib_coretimer.o
                0x9d00ab70                CORETIMER_CallbackSet

.text.UART2_TransmitterIsReady
                0x9d00ab84       0x14
 .text.UART2_TransmitterIsReady
                0x9d00ab84       0x14 build/default/debug/_ext/1865657120/plib_uart2.o
                0x9d00ab84                UART2_TransmitterIsReady

.rodata         0x9d00ab98       0x14
 .rodata        0x9d00ab98       0x14 build/default/debug/_ext/308758920/usb_device_cdc.o
                0x9d00ab98                cdcFunctionDriver

.text.init_CLI  0x9d00abac       0x14
 .text.init_CLI
                0x9d00abac       0x14 build/default/debug/_ext/1360937237/D32.o
                0x9d00abac                init_CLI

.text.nex_TX_data
                0x9d00abc0       0x14
 .text.nex_TX_data
                0x9d00abc0       0x14 build/default/debug/_ext/1360937237/D32.o
                0x9d00abc0                nex_TX_data

.text.nex_RX_data
                0x9d00abd4       0x14
 .text.nex_RX_data
                0x9d00abd4       0x14 build/default/debug/_ext/1360937237/D32.o
                0x9d00abd4                nex_RX_data

.text.AthenaOn  0x9d00abe8       0x14
 .text.AthenaOn
                0x9d00abe8       0x14 build/default/debug/_ext/1360937237/app_main.o
                0x9d00abe8                AthenaOn

.rodata         0x9d00abfc       0x14
 .rodata        0x9d00abfc       0x14 build/default/debug/_ext/1548692632/Athena.o

.text.negsf2    0x9d00ac10       0x14
 .text.negsf2   0x9d00ac10       0x14 c:/program files (x86)/microchip/xc32/v2.05/bin/bin/../../lib/gcc/pic32mx/4.8.3/../../../../pic32mx/lib\libm.a(negsf2.o)
                0x9d00ac10                __negsf2

.text.UART2_ReadByte
                0x9d00ac24       0x10
 .text.UART2_ReadByte
                0x9d00ac24       0x10 build/default/debug/_ext/1865657120/plib_uart2.o
                0x9d00ac24                UART2_ReadByte

.text.UART2_ReceiverIsReady
                0x9d00ac34       0x10
 .text.UART2_ReceiverIsReady
                0x9d00ac34       0x10 build/default/debug/_ext/1865657120/plib_uart2.o
                0x9d00ac34                UART2_ReceiverIsReady

.text.check_fluid_switch
                0x9d00ac44       0x10
 .text.check_fluid_switch
                0x9d00ac44       0x10 build/default/debug/_ext/1548692632/thermal_states.o
                0x9d00ac44                check_fluid_switch

.text.check_overheat_switch
                0x9d00ac54       0x10
 .text.check_overheat_switch
                0x9d00ac54       0x10 build/default/debug/_ext/1548692632/thermal_states.o
                0x9d00ac54                check_overheat_switch

.text.check_rst_switch
                0x9d00ac64       0x10
 .text.check_rst_switch
                0x9d00ac64       0x10 build/default/debug/_ext/1548692632/thermal_states.o
                0x9d00ac64                check_rst_switch

.text.__exception_handler_break
                0x9d00ac74        0xc
 .text.__exception_handler_break
                0x9d00ac74        0xc c:/program files (x86)/microchip/xc32/v2.05/bin/bin/../../lib/gcc/pic32mx/4.8.3/../../../../pic32mx/lib\software-debug-break.o
                0x9d00ac74                __exception_handler_break

.text.get_core_timer
                0x9d00ac80        0xc
 .text.get_core_timer
                0x9d00ac80        0xc build/default/debug/_ext/1360937237/app_main.o
                0x9d00ac80                get_core_timer

.text.clr_core_timer
                0x9d00ac8c        0xc
 .text.clr_core_timer
                0x9d00ac8c        0xc build/default/debug/_ext/1360937237/app_main.o
                0x9d00ac8c                clr_core_timer

.text.clr_system_timer
                0x9d00ac98        0xc
 .text.clr_system_timer
                0x9d00ac98        0xc build/default/debug/_ext/1360937237/app_main.o
                0x9d00ac98                clr_system_timer

.text.DRV_USBFS_Tasks
                0x9d00a988        0x8
 .text.DRV_USBFS_Tasks
                0x9d00a988        0x8 build/default/debug/_ext/2128569739/drv_usbfs.o
                0x9d00a988                DRV_USBFS_Tasks

.text._mon_putc
                0x9d00aca4        0x8
 .text._mon_putc
                0x9d00aca4        0x8 build/default/debug/_ext/163028504/xc32_monitor.o
                0x9d00aca4                _mon_putc

.text.parse_Julabo_packet
                0x9d00acac        0x8
 .text.parse_Julabo_packet
                0x9d00acac        0x8 build/default/debug/_ext/1360937237/D32.o
                0x9d00acac                parse_Julabo_packet

.text._on_reset
                0x9d00acb4        0x8
 .text._on_reset
                0x9d00acb4        0x8 c:/program files (x86)/microchip/xc32/v2.05/bin/bin/../../lib/gcc/pic32mx/4.8.3/../../../../pic32mx/lib\libpic32.a(default-on-reset.o)
                0x9d00acb4                _on_reset

.text._on_bootstrap
                0x9d00acbc        0x8
 .text._on_bootstrap
                0x9d00acbc        0x8 c:/program files (x86)/microchip/xc32/v2.05/bin/bin/../../lib/gcc/pic32mx/4.8.3/../../../../pic32mx/lib\libpic32.a(default-on-bootstrap.o)
                0x9d00acbc                _on_bootstrap

.rodata         0x9d00acc8       0x10
 .rodata        0x9d00acc8        0x8 c:/program files (x86)/microchip/xc32/v2.05/bin/bin/../../lib/gcc/pic32mx/4.8.3\libgcc.a(_floatundidf.o)
 .rodata        0x9d00acd0        0x8 c:/program files (x86)/microchip/xc32/v2.05/bin/bin/../../lib/gcc/pic32mx/4.8.3\libgcc.a(floatunsidf.o)

.rodata         0x9d00acc4        0x4
 .rodata        0x9d00acc4        0x4 build/default/debug/_ext/1360937237/app_main.o
